
./btc:     file format elf64-x86-64


Disassembly of section .init:

0000000000402000 <_init>:
  402000:	f3 0f 1e fa          	endbr64 
  402004:	48 83 ec 08          	sub    $0x8,%rsp
  402008:	48 8b 05 e9 6f 00 00 	mov    0x6fe9(%rip),%rax        # 408ff8 <__gmon_start__@Base>
  40200f:	48 85 c0             	test   %rax,%rax
  402012:	74 02                	je     402016 <_init+0x16>
  402014:	ff d0                	call   *%rax
  402016:	48 83 c4 08          	add    $0x8,%rsp
  40201a:	c3                   	ret    

Disassembly of section .plt:

0000000000402020 <_ZNKSt7__cxx1112basic_stringIcSt11char_traitsIcESaIcEE7compareERKS4_@plt-0x10>:
  402020:	ff 35 e2 6f 00 00    	push   0x6fe2(%rip)        # 409008 <_GLOBAL_OFFSET_TABLE_+0x8>
  402026:	ff 25 e4 6f 00 00    	jmp    *0x6fe4(%rip)        # 409010 <_GLOBAL_OFFSET_TABLE_+0x10>
  40202c:	0f 1f 40 00          	nopl   0x0(%rax)

0000000000402030 <_ZNKSt7__cxx1112basic_stringIcSt11char_traitsIcESaIcEE7compareERKS4_@plt>:
  402030:	ff 25 e2 6f 00 00    	jmp    *0x6fe2(%rip)        # 409018 <_ZNKSt7__cxx1112basic_stringIcSt11char_traitsIcESaIcEE7compareERKS4_@GLIBCXX_3.4.21>
  402036:	68 00 00 00 00       	push   $0x0
  40203b:	e9 e0 ff ff ff       	jmp    402020 <_init+0x20>

0000000000402040 <isspace@plt>:
  402040:	ff 25 da 6f 00 00    	jmp    *0x6fda(%rip)        # 409020 <isspace@GLIBC_2.2.5>
  402046:	68 01 00 00 00       	push   $0x1
  40204b:	e9 d0 ff ff ff       	jmp    402020 <_init+0x20>

0000000000402050 <_ZSt29_Rb_tree_insert_and_rebalancebPSt18_Rb_tree_node_baseS0_RS_@plt>:
  402050:	ff 25 d2 6f 00 00    	jmp    *0x6fd2(%rip)        # 409028 <_ZSt29_Rb_tree_insert_and_rebalancebPSt18_Rb_tree_node_baseS0_RS_@GLIBCXX_3.4>
  402056:	68 02 00 00 00       	push   $0x2
  40205b:	e9 c0 ff ff ff       	jmp    402020 <_init+0x20>

0000000000402060 <_ZSt7getlineIcSt11char_traitsIcESaIcEERSt13basic_istreamIT_T0_ES7_RNSt7__cxx1112basic_stringIS4_S5_T1_EE@plt>:
  402060:	ff 25 ca 6f 00 00    	jmp    *0x6fca(%rip)        # 409030 <_ZSt7getlineIcSt11char_traitsIcESaIcEERSt13basic_istreamIT_T0_ES7_RNSt7__cxx1112basic_stringIS4_S5_T1_EE@GLIBCXX_3.4.21>
  402066:	68 03 00 00 00       	push   $0x3
  40206b:	e9 b0 ff ff ff       	jmp    402020 <_init+0x20>

0000000000402070 <_ZNSirsERf@plt>:
  402070:	ff 25 c2 6f 00 00    	jmp    *0x6fc2(%rip)        # 409038 <_ZNSirsERf@GLIBCXX_3.4>
  402076:	68 04 00 00 00       	push   $0x4
  40207b:	e9 a0 ff ff ff       	jmp    402020 <_init+0x20>

0000000000402080 <_ZNSt14basic_ifstreamIcSt11char_traitsIcEE5closeEv@plt>:
  402080:	ff 25 ba 6f 00 00    	jmp    *0x6fba(%rip)        # 409040 <_ZNSt14basic_ifstreamIcSt11char_traitsIcEE5closeEv@GLIBCXX_3.4>
  402086:	68 05 00 00 00       	push   $0x5
  40208b:	e9 90 ff ff ff       	jmp    402020 <_init+0x20>

0000000000402090 <_ZNSt14basic_ifstreamIcSt11char_traitsIcEED1Ev@plt>:
  402090:	ff 25 b2 6f 00 00    	jmp    *0x6fb2(%rip)        # 409048 <_ZNSt14basic_ifstreamIcSt11char_traitsIcEED1Ev@GLIBCXX_3.4>
  402096:	68 06 00 00 00       	push   $0x6
  40209b:	e9 80 ff ff ff       	jmp    402020 <_init+0x20>

00000000004020a0 <_ZSt9terminatev@plt>:
  4020a0:	ff 25 aa 6f 00 00    	jmp    *0x6faa(%rip)        # 409050 <_ZSt9terminatev@GLIBCXX_3.4>
  4020a6:	68 07 00 00 00       	push   $0x7
  4020ab:	e9 70 ff ff ff       	jmp    402020 <_init+0x20>

00000000004020b0 <_ZNKSt7__cxx1112basic_stringIcSt11char_traitsIcESaIcEE7compareEPKc@plt>:
  4020b0:	ff 25 a2 6f 00 00    	jmp    *0x6fa2(%rip)        # 409058 <_ZNKSt7__cxx1112basic_stringIcSt11char_traitsIcESaIcEE7compareEPKc@GLIBCXX_3.4.21>
  4020b6:	68 08 00 00 00       	push   $0x8
  4020bb:	e9 60 ff ff ff       	jmp    402020 <_init+0x20>

00000000004020c0 <_ZSt17__throw_bad_allocv@plt>:
  4020c0:	ff 25 9a 6f 00 00    	jmp    *0x6f9a(%rip)        # 409060 <_ZSt17__throw_bad_allocv@GLIBCXX_3.4>
  4020c6:	68 09 00 00 00       	push   $0x9
  4020cb:	e9 50 ff ff ff       	jmp    402020 <_init+0x20>

00000000004020d0 <__cxa_begin_catch@plt>:
  4020d0:	ff 25 92 6f 00 00    	jmp    *0x6f92(%rip)        # 409068 <__cxa_begin_catch@CXXABI_1.3>
  4020d6:	68 0a 00 00 00       	push   $0xa
  4020db:	e9 40 ff ff ff       	jmp    402020 <_init+0x20>

00000000004020e0 <_ZNKSt7__cxx1112basic_stringIcSt11char_traitsIcESaIcEE5c_strEv@plt>:
  4020e0:	ff 25 8a 6f 00 00    	jmp    *0x6f8a(%rip)        # 409070 <_ZNKSt7__cxx1112basic_stringIcSt11char_traitsIcESaIcEE5c_strEv@GLIBCXX_3.4.21>
  4020e6:	68 0b 00 00 00       	push   $0xb
  4020eb:	e9 30 ff ff ff       	jmp    402020 <_init+0x20>

00000000004020f0 <_ZNSt7__cxx1112basic_stringIcSt11char_traitsIcESaIcEEC1ERKS4_@plt>:
  4020f0:	ff 25 82 6f 00 00    	jmp    *0x6f82(%rip)        # 409078 <_ZNSt7__cxx1112basic_stringIcSt11char_traitsIcESaIcEEC1ERKS4_@GLIBCXX_3.4.21>
  4020f6:	68 0c 00 00 00       	push   $0xc
  4020fb:	e9 20 ff ff ff       	jmp    402020 <_init+0x20>

0000000000402100 <_ZSt4endlIcSt11char_traitsIcEERSt13basic_ostreamIT_T0_ES6_@plt>:
  402100:	ff 25 7a 6f 00 00    	jmp    *0x6f7a(%rip)        # 409080 <_ZSt4endlIcSt11char_traitsIcEERSt13basic_ostreamIT_T0_ES6_@GLIBCXX_3.4>
  402106:	68 0d 00 00 00       	push   $0xd
  40210b:	e9 10 ff ff ff       	jmp    402020 <_init+0x20>

0000000000402110 <_ZNSt7__cxx1112basic_stringIcSt11char_traitsIcESaIcEE3endEv@plt>:
  402110:	ff 25 72 6f 00 00    	jmp    *0x6f72(%rip)        # 409088 <_ZNSt7__cxx1112basic_stringIcSt11char_traitsIcESaIcEE3endEv@GLIBCXX_3.4.21>
  402116:	68 0e 00 00 00       	push   $0xe
  40211b:	e9 00 ff ff ff       	jmp    402020 <_init+0x20>

0000000000402120 <_ZNSt7__cxx1112basic_stringIcSt11char_traitsIcESaIcEED1Ev@plt>:
  402120:	ff 25 6a 6f 00 00    	jmp    *0x6f6a(%rip)        # 409090 <_ZNSt7__cxx1112basic_stringIcSt11char_traitsIcESaIcEED1Ev@GLIBCXX_3.4.21>
  402126:	68 0f 00 00 00       	push   $0xf
  40212b:	e9 f0 fe ff ff       	jmp    402020 <_init+0x20>

0000000000402130 <sscanf@plt>:
  402130:	ff 25 62 6f 00 00    	jmp    *0x6f62(%rip)        # 409098 <sscanf@GLIBC_2.2.5>
  402136:	68 10 00 00 00       	push   $0x10
  40213b:	e9 e0 fe ff ff       	jmp    402020 <_init+0x20>

0000000000402140 <_ZNSolsEf@plt>:
  402140:	ff 25 5a 6f 00 00    	jmp    *0x6f5a(%rip)        # 4090a0 <_ZNSolsEf@GLIBCXX_3.4>
  402146:	68 11 00 00 00       	push   $0x11
  40214b:	e9 d0 fe ff ff       	jmp    402020 <_init+0x20>

0000000000402150 <_ZNSt7__cxx1118basic_stringstreamIcSt11char_traitsIcESaIcEED1Ev@plt>:
  402150:	ff 25 52 6f 00 00    	jmp    *0x6f52(%rip)        # 4090a8 <_ZNSt7__cxx1118basic_stringstreamIcSt11char_traitsIcESaIcEED1Ev@GLIBCXX_3.4.21>
  402156:	68 12 00 00 00       	push   $0x12
  40215b:	e9 c0 fe ff ff       	jmp    402020 <_init+0x20>

0000000000402160 <_ZSt28__throw_bad_array_new_lengthv@plt>:
  402160:	ff 25 4a 6f 00 00    	jmp    *0x6f4a(%rip)        # 4090b0 <_ZSt28__throw_bad_array_new_lengthv@GLIBCXX_3.4.29>
  402166:	68 13 00 00 00       	push   $0x13
  40216b:	e9 b0 fe ff ff       	jmp    402020 <_init+0x20>

0000000000402170 <memcpy@plt>:
  402170:	ff 25 42 6f 00 00    	jmp    *0x6f42(%rip)        # 4090b8 <memcpy@GLIBC_2.14>
  402176:	68 14 00 00 00       	push   $0x14
  40217b:	e9 a0 fe ff ff       	jmp    402020 <_init+0x20>

0000000000402180 <_ZNSt7__cxx1112basic_stringIcSt11char_traitsIcESaIcEE5beginEv@plt>:
  402180:	ff 25 3a 6f 00 00    	jmp    *0x6f3a(%rip)        # 4090c0 <_ZNSt7__cxx1112basic_stringIcSt11char_traitsIcESaIcEE5beginEv@GLIBCXX_3.4.21>
  402186:	68 15 00 00 00       	push   $0x15
  40218b:	e9 90 fe ff ff       	jmp    402020 <_init+0x20>

0000000000402190 <__cxa_atexit@plt>:
  402190:	ff 25 32 6f 00 00    	jmp    *0x6f32(%rip)        # 4090c8 <__cxa_atexit@GLIBC_2.2.5>
  402196:	68 16 00 00 00       	push   $0x16
  40219b:	e9 80 fe ff ff       	jmp    402020 <_init+0x20>

00000000004021a0 <_ZStlsIcSt11char_traitsIcESaIcEERSt13basic_ostreamIT_T0_ES7_RKNSt7__cxx1112basic_stringIS4_S5_T1_EE@plt>:
  4021a0:	ff 25 2a 6f 00 00    	jmp    *0x6f2a(%rip)        # 4090d0 <_ZStlsIcSt11char_traitsIcESaIcEERSt13basic_ostreamIT_T0_ES7_RKNSt7__cxx1112basic_stringIS4_S5_T1_EE@GLIBCXX_3.4.21>
  4021a6:	68 17 00 00 00       	push   $0x17
  4021ab:	e9 70 fe ff ff       	jmp    402020 <_init+0x20>

00000000004021b0 <_ZdlPv@plt>:
  4021b0:	ff 25 22 6f 00 00    	jmp    *0x6f22(%rip)        # 4090d8 <_ZdlPv@GLIBCXX_3.4>
  4021b6:	68 18 00 00 00       	push   $0x18
  4021bb:	e9 60 fe ff ff       	jmp    402020 <_init+0x20>

00000000004021c0 <_ZStlsISt11char_traitsIcEERSt13basic_ostreamIcT_ES5_PKc@plt>:
  4021c0:	ff 25 1a 6f 00 00    	jmp    *0x6f1a(%rip)        # 4090e0 <_ZStlsISt11char_traitsIcEERSt13basic_ostreamIcT_ES5_PKc@GLIBCXX_3.4>
  4021c6:	68 19 00 00 00       	push   $0x19
  4021cb:	e9 50 fe ff ff       	jmp    402020 <_init+0x20>

00000000004021d0 <_Znwm@plt>:
  4021d0:	ff 25 12 6f 00 00    	jmp    *0x6f12(%rip)        # 4090e8 <_Znwm@GLIBCXX_3.4>
  4021d6:	68 1a 00 00 00       	push   $0x1a
  4021db:	e9 40 fe ff ff       	jmp    402020 <_init+0x20>

00000000004021e0 <_ZNSt7__cxx1112basic_stringIcSt11char_traitsIcESaIcEE5eraseEN9__gnu_cxx17__normal_iteratorIPcS4_EES8_@plt>:
  4021e0:	ff 25 0a 6f 00 00    	jmp    *0x6f0a(%rip)        # 4090f0 <_ZNSt7__cxx1112basic_stringIcSt11char_traitsIcESaIcEE5eraseEN9__gnu_cxx17__normal_iteratorIPcS4_EES8_@GLIBCXX_3.4.21>
  4021e6:	68 1b 00 00 00       	push   $0x1b
  4021eb:	e9 30 fe ff ff       	jmp    402020 <_init+0x20>

00000000004021f0 <_ZNKSt7__cxx1112basic_stringIcSt11char_traitsIcESaIcEE6substrEmm@plt>:
  4021f0:	ff 25 02 6f 00 00    	jmp    *0x6f02(%rip)        # 4090f8 <_ZNKSt7__cxx1112basic_stringIcSt11char_traitsIcESaIcEE6substrEmm@GLIBCXX_3.4.21>
  4021f6:	68 1c 00 00 00       	push   $0x1c
  4021fb:	e9 20 fe ff ff       	jmp    402020 <_init+0x20>

0000000000402200 <_ZSt18_Rb_tree_decrementPSt18_Rb_tree_node_base@plt>:
  402200:	ff 25 fa 6e 00 00    	jmp    *0x6efa(%rip)        # 409100 <_ZSt18_Rb_tree_decrementPSt18_Rb_tree_node_base@GLIBCXX_3.4>
  402206:	68 1d 00 00 00       	push   $0x1d
  40220b:	e9 10 fe ff ff       	jmp    402020 <_init+0x20>

0000000000402210 <_ZNSolsEPFRSoS_E@plt>:
  402210:	ff 25 f2 6e 00 00    	jmp    *0x6ef2(%rip)        # 409108 <_ZNSolsEPFRSoS_E@GLIBCXX_3.4>
  402216:	68 1e 00 00 00       	push   $0x1e
  40221b:	e9 00 fe ff ff       	jmp    402020 <_init+0x20>

0000000000402220 <_ZNSaIcED1Ev@plt>:
  402220:	ff 25 ea 6e 00 00    	jmp    *0x6eea(%rip)        # 409110 <_ZNSaIcED1Ev@GLIBCXX_3.4>
  402226:	68 1f 00 00 00       	push   $0x1f
  40222b:	e9 f0 fd ff ff       	jmp    402020 <_init+0x20>

0000000000402230 <_ZNKSt7__cxx1112basic_stringIcSt11char_traitsIcESaIcEEixEm@plt>:
  402230:	ff 25 e2 6e 00 00    	jmp    *0x6ee2(%rip)        # 409118 <_ZNKSt7__cxx1112basic_stringIcSt11char_traitsIcESaIcEEixEm@GLIBCXX_3.4.21>
  402236:	68 20 00 00 00       	push   $0x20
  40223b:	e9 e0 fd ff ff       	jmp    402020 <_init+0x20>

0000000000402240 <_ZSt18_Rb_tree_incrementPKSt18_Rb_tree_node_base@plt>:
  402240:	ff 25 da 6e 00 00    	jmp    *0x6eda(%rip)        # 409120 <_ZSt18_Rb_tree_incrementPKSt18_Rb_tree_node_base@GLIBCXX_3.4>
  402246:	68 21 00 00 00       	push   $0x21
  40224b:	e9 d0 fd ff ff       	jmp    402020 <_init+0x20>

0000000000402250 <atof@plt>:
  402250:	ff 25 d2 6e 00 00    	jmp    *0x6ed2(%rip)        # 409128 <atof@GLIBC_2.2.5>
  402256:	68 22 00 00 00       	push   $0x22
  40225b:	e9 c0 fd ff ff       	jmp    402020 <_init+0x20>

0000000000402260 <_ZNKSt7__cxx1112basic_stringIcSt11char_traitsIcESaIcEE4findEcm@plt>:
  402260:	ff 25 ca 6e 00 00    	jmp    *0x6eca(%rip)        # 409130 <_ZNKSt7__cxx1112basic_stringIcSt11char_traitsIcESaIcEE4findEcm@GLIBCXX_3.4.21>
  402266:	68 23 00 00 00       	push   $0x23
  40226b:	e9 b0 fd ff ff       	jmp    402020 <_init+0x20>

0000000000402270 <_ZNSt7__cxx1112basic_stringIcSt11char_traitsIcESaIcEEC1EPKcRKS3_@plt>:
  402270:	ff 25 c2 6e 00 00    	jmp    *0x6ec2(%rip)        # 409138 <_ZNSt7__cxx1112basic_stringIcSt11char_traitsIcESaIcEEC1EPKcRKS3_@GLIBCXX_3.4.21>
  402276:	68 24 00 00 00       	push   $0x24
  40227b:	e9 a0 fd ff ff       	jmp    402020 <_init+0x20>

0000000000402280 <_ZNSt7__cxx1112basic_stringIcSt11char_traitsIcESaIcEEC1Ev@plt>:
  402280:	ff 25 ba 6e 00 00    	jmp    *0x6eba(%rip)        # 409140 <_ZNSt7__cxx1112basic_stringIcSt11char_traitsIcESaIcEEC1Ev@GLIBCXX_3.4.21>
  402286:	68 25 00 00 00       	push   $0x25
  40228b:	e9 90 fd ff ff       	jmp    402020 <_init+0x20>

0000000000402290 <__cxa_rethrow@plt>:
  402290:	ff 25 b2 6e 00 00    	jmp    *0x6eb2(%rip)        # 409148 <__cxa_rethrow@CXXABI_1.3>
  402296:	68 26 00 00 00       	push   $0x26
  40229b:	e9 80 fd ff ff       	jmp    402020 <_init+0x20>

00000000004022a0 <_ZNKSt7__cxx1112basic_stringIcSt11char_traitsIcESaIcEE6lengthEv@plt>:
  4022a0:	ff 25 aa 6e 00 00    	jmp    *0x6eaa(%rip)        # 409150 <_ZNKSt7__cxx1112basic_stringIcSt11char_traitsIcESaIcEE6lengthEv@GLIBCXX_3.4.21>
  4022a6:	68 27 00 00 00       	push   $0x27
  4022ab:	e9 70 fd ff ff       	jmp    402020 <_init+0x20>

00000000004022b0 <_ZNSt8ios_base4InitC1Ev@plt>:
  4022b0:	ff 25 a2 6e 00 00    	jmp    *0x6ea2(%rip)        # 409158 <_ZNSt8ios_base4InitC1Ev@GLIBCXX_3.4>
  4022b6:	68 28 00 00 00       	push   $0x28
  4022bb:	e9 60 fd ff ff       	jmp    402020 <_init+0x20>

00000000004022c0 <_ZNKSt9basic_iosIcSt11char_traitsIcEEcvPvEv@plt>:
  4022c0:	ff 25 9a 6e 00 00    	jmp    *0x6e9a(%rip)        # 409160 <_ZNKSt9basic_iosIcSt11char_traitsIcEEcvPvEv@GLIBCXX_3.4>
  4022c6:	68 29 00 00 00       	push   $0x29
  4022cb:	e9 50 fd ff ff       	jmp    402020 <_init+0x20>

00000000004022d0 <_ZNSt7__cxx1118basic_stringstreamIcSt11char_traitsIcESaIcEEC1ERKNS_12basic_stringIcS2_S3_EESt13_Ios_Openmode@plt>:
  4022d0:	ff 25 92 6e 00 00    	jmp    *0x6e92(%rip)        # 409168 <_ZNSt7__cxx1118basic_stringstreamIcSt11char_traitsIcESaIcEEC1ERKNS_12basic_stringIcS2_S3_EESt13_Ios_Openmode@GLIBCXX_3.4.21>
  4022d6:	68 2a 00 00 00       	push   $0x2a
  4022db:	e9 40 fd ff ff       	jmp    402020 <_init+0x20>

00000000004022e0 <_ZNSt14basic_ifstreamIcSt11char_traitsIcEE7is_openEv@plt>:
  4022e0:	ff 25 8a 6e 00 00    	jmp    *0x6e8a(%rip)        # 409170 <_ZNSt14basic_ifstreamIcSt11char_traitsIcEE7is_openEv@GLIBCXX_3.4>
  4022e6:	68 2b 00 00 00       	push   $0x2b
  4022eb:	e9 30 fd ff ff       	jmp    402020 <_init+0x20>

00000000004022f0 <__cxa_end_catch@plt>:
  4022f0:	ff 25 82 6e 00 00    	jmp    *0x6e82(%rip)        # 409178 <__cxa_end_catch@CXXABI_1.3>
  4022f6:	68 2c 00 00 00       	push   $0x2c
  4022fb:	e9 20 fd ff ff       	jmp    402020 <_init+0x20>

0000000000402300 <__gxx_personality_v0@plt>:
  402300:	ff 25 7a 6e 00 00    	jmp    *0x6e7a(%rip)        # 409180 <__gxx_personality_v0@CXXABI_1.3>
  402306:	68 2d 00 00 00       	push   $0x2d
  40230b:	e9 10 fd ff ff       	jmp    402020 <_init+0x20>

0000000000402310 <_ZNKSt7__cxx1112basic_stringIcSt11char_traitsIcESaIcEE5emptyEv@plt>:
  402310:	ff 25 72 6e 00 00    	jmp    *0x6e72(%rip)        # 409188 <_ZNKSt7__cxx1112basic_stringIcSt11char_traitsIcESaIcEE5emptyEv@GLIBCXX_3.4.21>
  402316:	68 2e 00 00 00       	push   $0x2e
  40231b:	e9 00 fd ff ff       	jmp    402020 <_init+0x20>

0000000000402320 <_Unwind_Resume@plt>:
  402320:	ff 25 6a 6e 00 00    	jmp    *0x6e6a(%rip)        # 409190 <_Unwind_Resume@GCC_3.0>
  402326:	68 2f 00 00 00       	push   $0x2f
  40232b:	e9 f0 fc ff ff       	jmp    402020 <_init+0x20>

0000000000402330 <_ZNSaIcEC1Ev@plt>:
  402330:	ff 25 62 6e 00 00    	jmp    *0x6e62(%rip)        # 409198 <_ZNSaIcEC1Ev@GLIBCXX_3.4>
  402336:	68 30 00 00 00       	push   $0x30
  40233b:	e9 e0 fc ff ff       	jmp    402020 <_init+0x20>

0000000000402340 <_ZNSt14basic_ifstreamIcSt11char_traitsIcEEC1EPKcSt13_Ios_Openmode@plt>:
  402340:	ff 25 5a 6e 00 00    	jmp    *0x6e5a(%rip)        # 4091a0 <_ZNSt14basic_ifstreamIcSt11char_traitsIcEEC1EPKcSt13_Ios_Openmode@GLIBCXX_3.4>
  402346:	68 31 00 00 00       	push   $0x31
  40234b:	e9 d0 fc ff ff       	jmp    402020 <_init+0x20>

0000000000402350 <_ZNKSt7__cxx1112basic_stringIcSt11char_traitsIcESaIcEE4findEPKcm@plt>:
  402350:	ff 25 52 6e 00 00    	jmp    *0x6e52(%rip)        # 4091a8 <_ZNKSt7__cxx1112basic_stringIcSt11char_traitsIcESaIcEE4findEPKcm@GLIBCXX_3.4.21>
  402356:	68 32 00 00 00       	push   $0x32
  40235b:	e9 c0 fc ff ff       	jmp    402020 <_init+0x20>

0000000000402360 <_ZNSt8ios_base4InitD1Ev@plt>:
  402360:	ff 25 4a 6e 00 00    	jmp    *0x6e4a(%rip)        # 4091b0 <_ZNSt8ios_base4InitD1Ev@GLIBCXX_3.4>
  402366:	68 33 00 00 00       	push   $0x33
  40236b:	e9 b0 fc ff ff       	jmp    402020 <_init+0x20>

Disassembly of section .text:

0000000000402370 <__cxx_global_var_init>:
  402370:	55                   	push   %rbp
  402371:	48 89 e5             	mov    %rsp,%rbp
  402374:	48 bf 11 93 40 00 00 	movabs $0x409311,%rdi
  40237b:	00 00 00 
  40237e:	e8 2d ff ff ff       	call   4022b0 <_ZNSt8ios_base4InitC1Ev@plt>
  402383:	48 bf 60 23 40 00 00 	movabs $0x402360,%rdi
  40238a:	00 00 00 
  40238d:	48 be 11 93 40 00 00 	movabs $0x409311,%rsi
  402394:	00 00 00 
  402397:	48 ba c0 91 40 00 00 	movabs $0x4091c0,%rdx
  40239e:	00 00 00 
  4023a1:	e8 ea fd ff ff       	call   402190 <__cxa_atexit@plt>
  4023a6:	5d                   	pop    %rbp
  4023a7:	c3                   	ret    
  4023a8:	0f 1f 84 00 00 00 00 	nopl   0x0(%rax,%rax,1)
  4023af:	00 

00000000004023b0 <_GLOBAL__sub_I_utils.cpp>:
  4023b0:	55                   	push   %rbp
  4023b1:	48 89 e5             	mov    %rsp,%rbp
  4023b4:	e8 b7 ff ff ff       	call   402370 <__cxx_global_var_init>
  4023b9:	5d                   	pop    %rbp
  4023ba:	c3                   	ret    
  4023bb:	0f 1f 44 00 00       	nopl   0x0(%rax,%rax,1)

00000000004023c0 <__cxx_global_var_init>:
  4023c0:	55                   	push   %rbp
  4023c1:	48 89 e5             	mov    %rsp,%rbp
  4023c4:	48 bf 12 93 40 00 00 	movabs $0x409312,%rdi
  4023cb:	00 00 00 
  4023ce:	e8 dd fe ff ff       	call   4022b0 <_ZNSt8ios_base4InitC1Ev@plt>
  4023d3:	48 bf 60 23 40 00 00 	movabs $0x402360,%rdi
  4023da:	00 00 00 
  4023dd:	48 be 12 93 40 00 00 	movabs $0x409312,%rsi
  4023e4:	00 00 00 
  4023e7:	48 ba c0 91 40 00 00 	movabs $0x4091c0,%rdx
  4023ee:	00 00 00 
  4023f1:	e8 9a fd ff ff       	call   402190 <__cxa_atexit@plt>
  4023f6:	5d                   	pop    %rbp
  4023f7:	c3                   	ret    
  4023f8:	0f 1f 84 00 00 00 00 	nopl   0x0(%rax,%rax,1)
  4023ff:	00 

0000000000402400 <_GLOBAL__sub_I_Btc.cpp>:
  402400:	55                   	push   %rbp
  402401:	48 89 e5             	mov    %rsp,%rbp
  402404:	e8 b7 ff ff ff       	call   4023c0 <__cxx_global_var_init>
  402409:	5d                   	pop    %rbp
  40240a:	c3                   	ret    
  40240b:	0f 1f 44 00 00       	nopl   0x0(%rax,%rax,1)

0000000000402410 <__cxx_global_var_init>:
  402410:	55                   	push   %rbp
  402411:	48 89 e5             	mov    %rsp,%rbp
  402414:	48 bf 13 93 40 00 00 	movabs $0x409313,%rdi
  40241b:	00 00 00 
  40241e:	e8 8d fe ff ff       	call   4022b0 <_ZNSt8ios_base4InitC1Ev@plt>
  402423:	48 bf 60 23 40 00 00 	movabs $0x402360,%rdi
  40242a:	00 00 00 
  40242d:	48 be 13 93 40 00 00 	movabs $0x409313,%rsi
  402434:	00 00 00 
  402437:	48 ba c0 91 40 00 00 	movabs $0x4091c0,%rdx
  40243e:	00 00 00 
  402441:	e8 4a fd ff ff       	call   402190 <__cxa_atexit@plt>
  402446:	5d                   	pop    %rbp
  402447:	c3                   	ret    
  402448:	0f 1f 84 00 00 00 00 	nopl   0x0(%rax,%rax,1)
  40244f:	00 

0000000000402450 <_GLOBAL__sub_I_main.cpp>:
  402450:	55                   	push   %rbp
  402451:	48 89 e5             	mov    %rsp,%rbp
  402454:	e8 b7 ff ff ff       	call   402410 <__cxx_global_var_init>
  402459:	5d                   	pop    %rbp
  40245a:	c3                   	ret    
  40245b:	0f 1f 44 00 00       	nopl   0x0(%rax,%rax,1)

0000000000402460 <_start>:
  402460:	f3 0f 1e fa          	endbr64 
  402464:	31 ed                	xor    %ebp,%ebp
  402466:	49 89 d1             	mov    %rdx,%r9
  402469:	5e                   	pop    %rsi
  40246a:	48 89 e2             	mov    %rsp,%rdx
  40246d:	48 83 e4 f0          	and    $0xfffffffffffffff0,%rsp
  402471:	50                   	push   %rax
  402472:	54                   	push   %rsp
  402473:	45 31 c0             	xor    %r8d,%r8d
  402476:	31 c9                	xor    %ecx,%ecx
  402478:	48 c7 c7 30 5d 40 00 	mov    $0x405d30,%rdi
  40247f:	ff 15 6b 6b 00 00    	call   *0x6b6b(%rip)        # 408ff0 <__libc_start_main@GLIBC_2.34>
  402485:	f4                   	hlt    
  402486:	66 2e 0f 1f 84 00 00 	cs nopw 0x0(%rax,%rax,1)
  40248d:	00 00 00 

0000000000402490 <_dl_relocate_static_pie>:
  402490:	f3 0f 1e fa          	endbr64 
  402494:	c3                   	ret    
  402495:	66 2e 0f 1f 84 00 00 	cs nopw 0x0(%rax,%rax,1)
  40249c:	00 00 00 
  40249f:	90                   	nop

00000000004024a0 <deregister_tm_clones>:
  4024a0:	b8 c8 91 40 00       	mov    $0x4091c8,%eax
  4024a5:	48 3d c8 91 40 00    	cmp    $0x4091c8,%rax
  4024ab:	74 13                	je     4024c0 <deregister_tm_clones+0x20>
  4024ad:	b8 00 00 00 00       	mov    $0x0,%eax
  4024b2:	48 85 c0             	test   %rax,%rax
  4024b5:	74 09                	je     4024c0 <deregister_tm_clones+0x20>
  4024b7:	bf c8 91 40 00       	mov    $0x4091c8,%edi
  4024bc:	ff e0                	jmp    *%rax
  4024be:	66 90                	xchg   %ax,%ax
  4024c0:	c3                   	ret    
  4024c1:	66 66 2e 0f 1f 84 00 	data16 cs nopw 0x0(%rax,%rax,1)
  4024c8:	00 00 00 00 
  4024cc:	0f 1f 40 00          	nopl   0x0(%rax)

00000000004024d0 <register_tm_clones>:
  4024d0:	be c8 91 40 00       	mov    $0x4091c8,%esi
  4024d5:	48 81 ee c8 91 40 00 	sub    $0x4091c8,%rsi
  4024dc:	48 89 f0             	mov    %rsi,%rax
  4024df:	48 c1 ee 3f          	shr    $0x3f,%rsi
  4024e3:	48 c1 f8 03          	sar    $0x3,%rax
  4024e7:	48 01 c6             	add    %rax,%rsi
  4024ea:	48 d1 fe             	sar    %rsi
  4024ed:	74 11                	je     402500 <register_tm_clones+0x30>
  4024ef:	b8 00 00 00 00       	mov    $0x0,%eax
  4024f4:	48 85 c0             	test   %rax,%rax
  4024f7:	74 07                	je     402500 <register_tm_clones+0x30>
  4024f9:	bf c8 91 40 00       	mov    $0x4091c8,%edi
  4024fe:	ff e0                	jmp    *%rax
  402500:	c3                   	ret    
  402501:	66 66 2e 0f 1f 84 00 	data16 cs nopw 0x0(%rax,%rax,1)
  402508:	00 00 00 00 
  40250c:	0f 1f 40 00          	nopl   0x0(%rax)

0000000000402510 <__do_global_dtors_aux>:
  402510:	f3 0f 1e fa          	endbr64 
  402514:	80 3d f5 6d 00 00 00 	cmpb   $0x0,0x6df5(%rip)        # 409310 <completed.0>
  40251b:	75 13                	jne    402530 <__do_global_dtors_aux+0x20>
  40251d:	55                   	push   %rbp
  40251e:	48 89 e5             	mov    %rsp,%rbp
  402521:	e8 7a ff ff ff       	call   4024a0 <deregister_tm_clones>
  402526:	c6 05 e3 6d 00 00 01 	movb   $0x1,0x6de3(%rip)        # 409310 <completed.0>
  40252d:	5d                   	pop    %rbp
  40252e:	c3                   	ret    
  40252f:	90                   	nop
  402530:	c3                   	ret    
  402531:	66 66 2e 0f 1f 84 00 	data16 cs nopw 0x0(%rax,%rax,1)
  402538:	00 00 00 00 
  40253c:	0f 1f 40 00          	nopl   0x0(%rax)

0000000000402540 <frame_dummy>:
  402540:	f3 0f 1e fa          	endbr64 
  402544:	eb 8a                	jmp    4024d0 <register_tm_clones>
  402546:	66 2e 0f 1f 84 00 00 	cs nopw 0x0(%rax,%rax,1)
  40254d:	00 00 00 

0000000000402550 <_Z8setColorNSt7__cxx1112basic_stringIcSt11char_traitsIcESaIcEEE>:
  402550:	55                   	push   %rbp
  402551:	48 89 e5             	mov    %rsp,%rbp
  402554:	48 89 fe             	mov    %rdi,%rsi
  402557:	48 bf 00 92 40 00 00 	movabs $0x409200,%rdi
  40255e:	00 00 00 
  402561:	e8 3a fc ff ff       	call   4021a0 <_ZStlsIcSt11char_traitsIcESaIcEERSt13basic_ostreamIT_T0_ES7_RKNSt7__cxx1112basic_stringIS4_S5_T1_EE@plt>
  402566:	5d                   	pop    %rbp
  402567:	c3                   	ret    
  402568:	0f 1f 84 00 00 00 00 	nopl   0x0(%rax,%rax,1)
  40256f:	00 

0000000000402570 <_Z10resetColorv>:
  402570:	55                   	push   %rbp
  402571:	48 89 e5             	mov    %rsp,%rbp
  402574:	48 bf 00 92 40 00 00 	movabs $0x409200,%rdi
  40257b:	00 00 00 
  40257e:	48 be 28 60 40 00 00 	movabs $0x406028,%rsi
  402585:	00 00 00 
  402588:	e8 33 fc ff ff       	call   4021c0 <_ZStlsISt11char_traitsIcEERSt13basic_ostreamIcT_ES5_PKc@plt>
  40258d:	5d                   	pop    %rbp
  40258e:	c3                   	ret    
  40258f:	90                   	nop

0000000000402590 <_Z4trimRKNSt7__cxx1112basic_stringIcSt11char_traitsIcESaIcEEE>:
  402590:	55                   	push   %rbp
  402591:	48 89 e5             	mov    %rsp,%rbp
  402594:	48 81 ec 90 00 00 00 	sub    $0x90,%rsp
  40259b:	48 89 7d a0          	mov    %rdi,-0x60(%rbp)
  40259f:	48 89 f8             	mov    %rdi,%rax
  4025a2:	48 89 45 98          	mov    %rax,-0x68(%rbp)
  4025a6:	48 89 7d f8          	mov    %rdi,-0x8(%rbp)
  4025aa:	48 89 75 f0          	mov    %rsi,-0x10(%rbp)
  4025ae:	c6 45 ef 00          	movb   $0x0,-0x11(%rbp)
  4025b2:	48 8b 75 f0          	mov    -0x10(%rbp),%rsi
  4025b6:	e8 35 fb ff ff       	call   4020f0 <_ZNSt7__cxx1112basic_stringIcSt11char_traitsIcESaIcEEC1ERKS4_@plt>
  4025bb:	48 8b 7d a0          	mov    -0x60(%rbp),%rdi
  4025bf:	e8 bc fb ff ff       	call   402180 <_ZNSt7__cxx1112basic_stringIcSt11char_traitsIcESaIcEE5beginEv@plt>
  4025c4:	48 89 c1             	mov    %rax,%rcx
  4025c7:	48 89 4d a8          	mov    %rcx,-0x58(%rbp)
  4025cb:	e9 00 00 00 00       	jmp    4025d0 <_Z4trimRKNSt7__cxx1112basic_stringIcSt11char_traitsIcESaIcEEE+0x40>
  4025d0:	48 8b 7d a0          	mov    -0x60(%rbp),%rdi
  4025d4:	48 8b 45 a8          	mov    -0x58(%rbp),%rax
  4025d8:	48 89 45 d8          	mov    %rax,-0x28(%rbp)
  4025dc:	e8 2f fb ff ff       	call   402110 <_ZNSt7__cxx1112basic_stringIcSt11char_traitsIcESaIcEE3endEv@plt>
  4025e1:	48 89 c1             	mov    %rax,%rcx
  4025e4:	48 89 4d 90          	mov    %rcx,-0x70(%rbp)
  4025e8:	e9 00 00 00 00       	jmp    4025ed <_Z4trimRKNSt7__cxx1112basic_stringIcSt11char_traitsIcESaIcEEE+0x5d>
  4025ed:	48 8b 45 90          	mov    -0x70(%rbp),%rax
  4025f1:	48 89 45 c0          	mov    %rax,-0x40(%rbp)
  4025f5:	48 8b 7d d8          	mov    -0x28(%rbp),%rdi
  4025f9:	48 8b 75 c0          	mov    -0x40(%rbp),%rsi
  4025fd:	ba 40 20 40 00       	mov    $0x402040,%edx
  402602:	e8 b9 00 00 00       	call   4026c0 <_ZSt9remove_ifIN9__gnu_cxx17__normal_iteratorIPcNSt7__cxx1112basic_stringIcSt11char_traitsIcESaIcEEEEEPFiiEET_SC_SC_T0_>
  402607:	48 89 c1             	mov    %rax,%rcx
  40260a:	48 89 4d 88          	mov    %rcx,-0x78(%rbp)
  40260e:	e9 00 00 00 00       	jmp    402613 <_Z4trimRKNSt7__cxx1112basic_stringIcSt11char_traitsIcESaIcEEE+0x83>
  402613:	48 8b 7d a0          	mov    -0x60(%rbp),%rdi
  402617:	48 8b 45 88          	mov    -0x78(%rbp),%rax
  40261b:	48 89 45 e0          	mov    %rax,-0x20(%rbp)
  40261f:	e8 ec fa ff ff       	call   402110 <_ZNSt7__cxx1112basic_stringIcSt11char_traitsIcESaIcEE3endEv@plt>
  402624:	48 89 c1             	mov    %rax,%rcx
  402627:	48 89 4d 80          	mov    %rcx,-0x80(%rbp)
  40262b:	e9 00 00 00 00       	jmp    402630 <_Z4trimRKNSt7__cxx1112basic_stringIcSt11char_traitsIcESaIcEEE+0xa0>
  402630:	48 8b 7d a0          	mov    -0x60(%rbp),%rdi
  402634:	48 8b 45 80          	mov    -0x80(%rbp),%rax
  402638:	48 89 45 b8          	mov    %rax,-0x48(%rbp)
  40263c:	48 8b 75 e0          	mov    -0x20(%rbp),%rsi
  402640:	48 8b 55 b8          	mov    -0x48(%rbp),%rdx
  402644:	e8 97 fb ff ff       	call   4021e0 <_ZNSt7__cxx1112basic_stringIcSt11char_traitsIcESaIcEE5eraseEN9__gnu_cxx17__normal_iteratorIPcS4_EES8_@plt>
  402649:	48 89 c1             	mov    %rax,%rcx
  40264c:	48 89 8d 78 ff ff ff 	mov    %rcx,-0x88(%rbp)
  402653:	e9 00 00 00 00       	jmp    402658 <_Z4trimRKNSt7__cxx1112basic_stringIcSt11char_traitsIcESaIcEEE+0xc8>
  402658:	48 8b 85 78 ff ff ff 	mov    -0x88(%rbp),%rax
  40265f:	48 89 45 b0          	mov    %rax,-0x50(%rbp)
  402663:	c6 45 ef 01          	movb   $0x1,-0x11(%rbp)
  402667:	f6 45 ef 01          	testb  $0x1,-0x11(%rbp)
  40266b:	0f 85 29 00 00 00    	jne    40269a <_Z4trimRKNSt7__cxx1112basic_stringIcSt11char_traitsIcESaIcEEE+0x10a>
  402671:	e9 1b 00 00 00       	jmp    402691 <_Z4trimRKNSt7__cxx1112basic_stringIcSt11char_traitsIcESaIcEEE+0x101>
  402676:	48 8b 7d a0          	mov    -0x60(%rbp),%rdi
  40267a:	48 89 d1             	mov    %rdx,%rcx
  40267d:	48 89 c6             	mov    %rax,%rsi
  402680:	48 89 75 d0          	mov    %rsi,-0x30(%rbp)
  402684:	89 4d cc             	mov    %ecx,-0x34(%rbp)
  402687:	e8 94 fa ff ff       	call   402120 <_ZNSt7__cxx1112basic_stringIcSt11char_traitsIcESaIcEED1Ev@plt>
  40268c:	e9 16 00 00 00       	jmp    4026a7 <_Z4trimRKNSt7__cxx1112basic_stringIcSt11char_traitsIcESaIcEEE+0x117>
  402691:	48 8b 7d a0          	mov    -0x60(%rbp),%rdi
  402695:	e8 86 fa ff ff       	call   402120 <_ZNSt7__cxx1112basic_stringIcSt11char_traitsIcESaIcEED1Ev@plt>
  40269a:	48 8b 45 98          	mov    -0x68(%rbp),%rax
  40269e:	48 81 c4 90 00 00 00 	add    $0x90,%rsp
  4026a5:	5d                   	pop    %rbp
  4026a6:	c3                   	ret    
  4026a7:	e9 00 00 00 00       	jmp    4026ac <_Z4trimRKNSt7__cxx1112basic_stringIcSt11char_traitsIcESaIcEEE+0x11c>
  4026ac:	48 8b 7d d0          	mov    -0x30(%rbp),%rdi
  4026b0:	e8 6b fc ff ff       	call   402320 <_Unwind_Resume@plt>
  4026b5:	48 89 c7             	mov    %rax,%rdi
  4026b8:	e8 53 00 00 00       	call   402710 <__clang_call_terminate>
  4026bd:	0f 1f 00             	nopl   (%rax)

00000000004026c0 <_ZSt9remove_ifIN9__gnu_cxx17__normal_iteratorIPcNSt7__cxx1112basic_stringIcSt11char_traitsIcESaIcEEEEEPFiiEET_SC_SC_T0_>:
  4026c0:	55                   	push   %rbp
  4026c1:	48 89 e5             	mov    %rsp,%rbp
  4026c4:	48 83 ec 40          	sub    $0x40,%rsp
  4026c8:	48 89 7d f0          	mov    %rdi,-0x10(%rbp)
  4026cc:	48 89 75 e8          	mov    %rsi,-0x18(%rbp)
  4026d0:	48 89 55 e0          	mov    %rdx,-0x20(%rbp)
  4026d4:	48 8b 45 f0          	mov    -0x10(%rbp),%rax
  4026d8:	48 89 45 d8          	mov    %rax,-0x28(%rbp)
  4026dc:	48 8b 45 e8          	mov    -0x18(%rbp),%rax
  4026e0:	48 89 45 d0          	mov    %rax,-0x30(%rbp)
  4026e4:	48 8b 7d e0          	mov    -0x20(%rbp),%rdi
  4026e8:	e8 43 01 00 00       	call   402830 <_ZN9__gnu_cxx5__ops11__pred_iterIPFiiEEENS0_10_Iter_predIT_EES5_>
  4026ed:	48 89 45 c8          	mov    %rax,-0x38(%rbp)
  4026f1:	48 8b 7d d8          	mov    -0x28(%rbp),%rdi
  4026f5:	48 8b 75 d0          	mov    -0x30(%rbp),%rsi
  4026f9:	48 8b 55 c8          	mov    -0x38(%rbp),%rdx
  4026fd:	e8 1e 00 00 00       	call   402720 <_ZSt11__remove_ifIN9__gnu_cxx17__normal_iteratorIPcNSt7__cxx1112basic_stringIcSt11char_traitsIcESaIcEEEEENS0_5__ops10_Iter_predIPFiiEEEET_SF_SF_T0_>
  402702:	48 89 45 f8          	mov    %rax,-0x8(%rbp)
  402706:	48 8b 45 f8          	mov    -0x8(%rbp),%rax
  40270a:	48 83 c4 40          	add    $0x40,%rsp
  40270e:	5d                   	pop    %rbp
  40270f:	c3                   	ret    

0000000000402710 <__clang_call_terminate>:
  402710:	50                   	push   %rax
  402711:	e8 ba f9 ff ff       	call   4020d0 <__cxa_begin_catch@plt>
  402716:	e8 85 f9 ff ff       	call   4020a0 <_ZSt9terminatev@plt>
  40271b:	0f 1f 44 00 00       	nopl   0x0(%rax,%rax,1)

0000000000402720 <_ZSt11__remove_ifIN9__gnu_cxx17__normal_iteratorIPcNSt7__cxx1112basic_stringIcSt11char_traitsIcESaIcEEEEENS0_5__ops10_Iter_predIPFiiEEEET_SF_SF_T0_>:
  402720:	55                   	push   %rbp
  402721:	48 89 e5             	mov    %rsp,%rbp
  402724:	48 83 ec 60          	sub    $0x60,%rsp
  402728:	48 89 7d f0          	mov    %rdi,-0x10(%rbp)
  40272c:	48 89 75 e8          	mov    %rsi,-0x18(%rbp)
  402730:	48 89 55 e0          	mov    %rdx,-0x20(%rbp)
  402734:	48 8b 45 f0          	mov    -0x10(%rbp),%rax
  402738:	48 89 45 d0          	mov    %rax,-0x30(%rbp)
  40273c:	48 8b 45 e8          	mov    -0x18(%rbp),%rax
  402740:	48 89 45 c8          	mov    %rax,-0x38(%rbp)
  402744:	48 8b 45 e0          	mov    -0x20(%rbp),%rax
  402748:	48 89 45 c0          	mov    %rax,-0x40(%rbp)
  40274c:	48 8b 7d d0          	mov    -0x30(%rbp),%rdi
  402750:	48 8b 75 c8          	mov    -0x38(%rbp),%rsi
  402754:	48 8b 55 c0          	mov    -0x40(%rbp),%rdx
  402758:	e8 03 01 00 00       	call   402860 <_ZSt9__find_ifIN9__gnu_cxx17__normal_iteratorIPcNSt7__cxx1112basic_stringIcSt11char_traitsIcESaIcEEEEENS0_5__ops10_Iter_predIPFiiEEEET_SF_SF_T0_>
  40275d:	48 89 45 d8          	mov    %rax,-0x28(%rbp)
  402761:	48 8b 45 d8          	mov    -0x28(%rbp),%rax
  402765:	48 89 45 f0          	mov    %rax,-0x10(%rbp)
  402769:	48 8d 7d f0          	lea    -0x10(%rbp),%rdi
  40276d:	48 8d 75 e8          	lea    -0x18(%rbp),%rsi
  402771:	e8 4a 01 00 00       	call   4028c0 <_ZN9__gnu_cxxeqIPcNSt7__cxx1112basic_stringIcSt11char_traitsIcESaIcEEEEEbRKNS_17__normal_iteratorIT_T0_EESD_>
  402776:	a8 01                	test   $0x1,%al
  402778:	0f 85 05 00 00 00    	jne    402783 <_ZSt11__remove_ifIN9__gnu_cxx17__normal_iteratorIPcNSt7__cxx1112basic_stringIcSt11char_traitsIcESaIcEEEEENS0_5__ops10_Iter_predIPFiiEEEET_SF_SF_T0_+0x63>
  40277e:	e9 0d 00 00 00       	jmp    402790 <_ZSt11__remove_ifIN9__gnu_cxx17__normal_iteratorIPcNSt7__cxx1112basic_stringIcSt11char_traitsIcESaIcEEEEENS0_5__ops10_Iter_predIPFiiEEEET_SF_SF_T0_+0x70>
  402783:	48 8b 45 f0          	mov    -0x10(%rbp),%rax
  402787:	48 89 45 f8          	mov    %rax,-0x8(%rbp)
  40278b:	e9 88 00 00 00       	jmp    402818 <_ZSt11__remove_ifIN9__gnu_cxx17__normal_iteratorIPcNSt7__cxx1112basic_stringIcSt11char_traitsIcESaIcEEEEENS0_5__ops10_Iter_predIPFiiEEEET_SF_SF_T0_+0xf8>
  402790:	48 8b 45 f0          	mov    -0x10(%rbp),%rax
  402794:	48 89 45 b8          	mov    %rax,-0x48(%rbp)
  402798:	48 8d 7d f0          	lea    -0x10(%rbp),%rdi
  40279c:	e8 6f 01 00 00       	call   402910 <_ZN9__gnu_cxx17__normal_iteratorIPcNSt7__cxx1112basic_stringIcSt11char_traitsIcESaIcEEEEppEv>
  4027a1:	48 8d 7d f0          	lea    -0x10(%rbp),%rdi
  4027a5:	48 8d 75 e8          	lea    -0x18(%rbp),%rsi
  4027a9:	e8 82 01 00 00       	call   402930 <_ZN9__gnu_cxxneIPcNSt7__cxx1112basic_stringIcSt11char_traitsIcESaIcEEEEEbRKNS_17__normal_iteratorIT_T0_EESD_>
  4027ae:	a8 01                	test   $0x1,%al
  4027b0:	0f 85 05 00 00 00    	jne    4027bb <_ZSt11__remove_ifIN9__gnu_cxx17__normal_iteratorIPcNSt7__cxx1112basic_stringIcSt11char_traitsIcESaIcEEEEENS0_5__ops10_Iter_predIPFiiEEEET_SF_SF_T0_+0x9b>
  4027b6:	e9 55 00 00 00       	jmp    402810 <_ZSt11__remove_ifIN9__gnu_cxx17__normal_iteratorIPcNSt7__cxx1112basic_stringIcSt11char_traitsIcESaIcEEEEENS0_5__ops10_Iter_predIPFiiEEEET_SF_SF_T0_+0xf0>
  4027bb:	48 8b 45 f0          	mov    -0x10(%rbp),%rax
  4027bf:	48 89 45 b0          	mov    %rax,-0x50(%rbp)
  4027c3:	48 8b 75 b0          	mov    -0x50(%rbp),%rsi
  4027c7:	48 8d 7d e0          	lea    -0x20(%rbp),%rdi
  4027cb:	e8 b0 01 00 00       	call   402980 <_ZN9__gnu_cxx5__ops10_Iter_predIPFiiEEclINS_17__normal_iteratorIPcNSt7__cxx1112basic_stringIcSt11char_traitsIcESaIcEEEEEEEbT_>
  4027d0:	a8 01                	test   $0x1,%al
  4027d2:	0f 85 25 00 00 00    	jne    4027fd <_ZSt11__remove_ifIN9__gnu_cxx17__normal_iteratorIPcNSt7__cxx1112basic_stringIcSt11char_traitsIcESaIcEEEEENS0_5__ops10_Iter_predIPFiiEEEET_SF_SF_T0_+0xdd>
  4027d8:	48 8d 7d f0          	lea    -0x10(%rbp),%rdi
  4027dc:	e8 ef 01 00 00       	call   4029d0 <_ZNK9__gnu_cxx17__normal_iteratorIPcNSt7__cxx1112basic_stringIcSt11char_traitsIcESaIcEEEEdeEv>
  4027e1:	8a 00                	mov    (%rax),%al
  4027e3:	88 45 af             	mov    %al,-0x51(%rbp)
  4027e6:	48 8d 7d b8          	lea    -0x48(%rbp),%rdi
  4027ea:	e8 e1 01 00 00       	call   4029d0 <_ZNK9__gnu_cxx17__normal_iteratorIPcNSt7__cxx1112basic_stringIcSt11char_traitsIcESaIcEEEEdeEv>
  4027ef:	8a 4d af             	mov    -0x51(%rbp),%cl
  4027f2:	88 08                	mov    %cl,(%rax)
  4027f4:	48 8d 7d b8          	lea    -0x48(%rbp),%rdi
  4027f8:	e8 13 01 00 00       	call   402910 <_ZN9__gnu_cxx17__normal_iteratorIPcNSt7__cxx1112basic_stringIcSt11char_traitsIcESaIcEEEEppEv>
  4027fd:	e9 00 00 00 00       	jmp    402802 <_ZSt11__remove_ifIN9__gnu_cxx17__normal_iteratorIPcNSt7__cxx1112basic_stringIcSt11char_traitsIcESaIcEEEEENS0_5__ops10_Iter_predIPFiiEEEET_SF_SF_T0_+0xe2>
  402802:	48 8d 7d f0          	lea    -0x10(%rbp),%rdi
  402806:	e8 05 01 00 00       	call   402910 <_ZN9__gnu_cxx17__normal_iteratorIPcNSt7__cxx1112basic_stringIcSt11char_traitsIcESaIcEEEEppEv>
  40280b:	e9 91 ff ff ff       	jmp    4027a1 <_ZSt11__remove_ifIN9__gnu_cxx17__normal_iteratorIPcNSt7__cxx1112basic_stringIcSt11char_traitsIcESaIcEEEEENS0_5__ops10_Iter_predIPFiiEEEET_SF_SF_T0_+0x81>
  402810:	48 8b 45 b8          	mov    -0x48(%rbp),%rax
  402814:	48 89 45 f8          	mov    %rax,-0x8(%rbp)
  402818:	48 8b 45 f8          	mov    -0x8(%rbp),%rax
  40281c:	48 83 c4 60          	add    $0x60,%rsp
  402820:	5d                   	pop    %rbp
  402821:	c3                   	ret    
  402822:	66 2e 0f 1f 84 00 00 	cs nopw 0x0(%rax,%rax,1)
  402829:	00 00 00 
  40282c:	0f 1f 40 00          	nopl   0x0(%rax)

0000000000402830 <_ZN9__gnu_cxx5__ops11__pred_iterIPFiiEEENS0_10_Iter_predIT_EES5_>:
  402830:	55                   	push   %rbp
  402831:	48 89 e5             	mov    %rsp,%rbp
  402834:	48 83 ec 10          	sub    $0x10,%rsp
  402838:	48 89 7d f0          	mov    %rdi,-0x10(%rbp)
  40283c:	48 8b 75 f0          	mov    -0x10(%rbp),%rsi
  402840:	48 8d 7d f8          	lea    -0x8(%rbp),%rdi
  402844:	e8 17 04 00 00       	call   402c60 <_ZN9__gnu_cxx5__ops10_Iter_predIPFiiEEC2ES3_>
  402849:	48 8b 45 f8          	mov    -0x8(%rbp),%rax
  40284d:	48 83 c4 10          	add    $0x10,%rsp
  402851:	5d                   	pop    %rbp
  402852:	c3                   	ret    
  402853:	66 2e 0f 1f 84 00 00 	cs nopw 0x0(%rax,%rax,1)
  40285a:	00 00 00 
  40285d:	0f 1f 00             	nopl   (%rax)

0000000000402860 <_ZSt9__find_ifIN9__gnu_cxx17__normal_iteratorIPcNSt7__cxx1112basic_stringIcSt11char_traitsIcESaIcEEEEENS0_5__ops10_Iter_predIPFiiEEEET_SF_SF_T0_>:
  402860:	55                   	push   %rbp
  402861:	48 89 e5             	mov    %rsp,%rbp
  402864:	48 83 ec 50          	sub    $0x50,%rsp
  402868:	48 89 7d f0          	mov    %rdi,-0x10(%rbp)
  40286c:	48 89 75 e8          	mov    %rsi,-0x18(%rbp)
  402870:	48 89 55 e0          	mov    %rdx,-0x20(%rbp)
  402874:	48 8b 45 f0          	mov    -0x10(%rbp),%rax
  402878:	48 89 45 d8          	mov    %rax,-0x28(%rbp)
  40287c:	48 8b 45 e8          	mov    -0x18(%rbp),%rax
  402880:	48 89 45 d0          	mov    %rax,-0x30(%rbp)
  402884:	48 8b 45 e0          	mov    -0x20(%rbp),%rax
  402888:	48 89 45 c8          	mov    %rax,-0x38(%rbp)
  40288c:	48 8d 7d f0          	lea    -0x10(%rbp),%rdi
  402890:	e8 6b 03 00 00       	call   402c00 <_ZSt19__iterator_categoryIN9__gnu_cxx17__normal_iteratorIPcNSt7__cxx1112basic_stringIcSt11char_traitsIcESaIcEEEEEENSt15iterator_traitsIT_E17iterator_categoryERKSB_>
  402895:	48 8b 7d d8          	mov    -0x28(%rbp),%rdi
  402899:	48 8b 75 d0          	mov    -0x30(%rbp),%rsi
  40289d:	48 8b 55 c8          	mov    -0x38(%rbp),%rdx
  4028a1:	e8 4a 01 00 00       	call   4029f0 <_ZSt9__find_ifIN9__gnu_cxx17__normal_iteratorIPcNSt7__cxx1112basic_stringIcSt11char_traitsIcESaIcEEEEENS0_5__ops10_Iter_predIPFiiEEEET_SF_SF_T0_St26random_access_iterator_tag>
  4028a6:	48 89 45 f8          	mov    %rax,-0x8(%rbp)
  4028aa:	48 8b 45 f8          	mov    -0x8(%rbp),%rax
  4028ae:	48 83 c4 50          	add    $0x50,%rsp
  4028b2:	5d                   	pop    %rbp
  4028b3:	c3                   	ret    
  4028b4:	66 2e 0f 1f 84 00 00 	cs nopw 0x0(%rax,%rax,1)
  4028bb:	00 00 00 
  4028be:	66 90                	xchg   %ax,%ax

00000000004028c0 <_ZN9__gnu_cxxeqIPcNSt7__cxx1112basic_stringIcSt11char_traitsIcESaIcEEEEEbRKNS_17__normal_iteratorIT_T0_EESD_>:
  4028c0:	55                   	push   %rbp
  4028c1:	48 89 e5             	mov    %rsp,%rbp
  4028c4:	48 83 ec 20          	sub    $0x20,%rsp
  4028c8:	48 89 7d f8          	mov    %rdi,-0x8(%rbp)
  4028cc:	48 89 75 f0          	mov    %rsi,-0x10(%rbp)
  4028d0:	48 8b 7d f8          	mov    -0x8(%rbp),%rdi
  4028d4:	e8 77 03 00 00       	call   402c50 <_ZNK9__gnu_cxx17__normal_iteratorIPcNSt7__cxx1112basic_stringIcSt11char_traitsIcESaIcEEEE4baseEv>
  4028d9:	48 8b 00             	mov    (%rax),%rax
  4028dc:	48 89 45 e8          	mov    %rax,-0x18(%rbp)
  4028e0:	48 8b 7d f0          	mov    -0x10(%rbp),%rdi
  4028e4:	e8 67 03 00 00       	call   402c50 <_ZNK9__gnu_cxx17__normal_iteratorIPcNSt7__cxx1112basic_stringIcSt11char_traitsIcESaIcEEEE4baseEv>
  4028e9:	48 89 c1             	mov    %rax,%rcx
  4028ec:	48 8b 45 e8          	mov    -0x18(%rbp),%rax
  4028f0:	48 3b 01             	cmp    (%rcx),%rax
  4028f3:	0f 94 c0             	sete   %al
  4028f6:	24 01                	and    $0x1,%al
  4028f8:	0f b6 c0             	movzbl %al,%eax
  4028fb:	48 83 c4 20          	add    $0x20,%rsp
  4028ff:	5d                   	pop    %rbp
  402900:	c3                   	ret    
  402901:	66 2e 0f 1f 84 00 00 	cs nopw 0x0(%rax,%rax,1)
  402908:	00 00 00 
  40290b:	0f 1f 44 00 00       	nopl   0x0(%rax,%rax,1)

0000000000402910 <_ZN9__gnu_cxx17__normal_iteratorIPcNSt7__cxx1112basic_stringIcSt11char_traitsIcESaIcEEEEppEv>:
  402910:	55                   	push   %rbp
  402911:	48 89 e5             	mov    %rsp,%rbp
  402914:	48 89 7d f8          	mov    %rdi,-0x8(%rbp)
  402918:	48 8b 45 f8          	mov    -0x8(%rbp),%rax
  40291c:	48 8b 08             	mov    (%rax),%rcx
  40291f:	48 83 c1 01          	add    $0x1,%rcx
  402923:	48 89 08             	mov    %rcx,(%rax)
  402926:	5d                   	pop    %rbp
  402927:	c3                   	ret    
  402928:	0f 1f 84 00 00 00 00 	nopl   0x0(%rax,%rax,1)
  40292f:	00 

0000000000402930 <_ZN9__gnu_cxxneIPcNSt7__cxx1112basic_stringIcSt11char_traitsIcESaIcEEEEEbRKNS_17__normal_iteratorIT_T0_EESD_>:
  402930:	55                   	push   %rbp
  402931:	48 89 e5             	mov    %rsp,%rbp
  402934:	48 83 ec 20          	sub    $0x20,%rsp
  402938:	48 89 7d f8          	mov    %rdi,-0x8(%rbp)
  40293c:	48 89 75 f0          	mov    %rsi,-0x10(%rbp)
  402940:	48 8b 7d f8          	mov    -0x8(%rbp),%rdi
  402944:	e8 07 03 00 00       	call   402c50 <_ZNK9__gnu_cxx17__normal_iteratorIPcNSt7__cxx1112basic_stringIcSt11char_traitsIcESaIcEEEE4baseEv>
  402949:	48 8b 00             	mov    (%rax),%rax
  40294c:	48 89 45 e8          	mov    %rax,-0x18(%rbp)
  402950:	48 8b 7d f0          	mov    -0x10(%rbp),%rdi
  402954:	e8 f7 02 00 00       	call   402c50 <_ZNK9__gnu_cxx17__normal_iteratorIPcNSt7__cxx1112basic_stringIcSt11char_traitsIcESaIcEEEE4baseEv>
  402959:	48 89 c1             	mov    %rax,%rcx
  40295c:	48 8b 45 e8          	mov    -0x18(%rbp),%rax
  402960:	48 3b 01             	cmp    (%rcx),%rax
  402963:	0f 95 c0             	setne  %al
  402966:	24 01                	and    $0x1,%al
  402968:	0f b6 c0             	movzbl %al,%eax
  40296b:	48 83 c4 20          	add    $0x20,%rsp
  40296f:	5d                   	pop    %rbp
  402970:	c3                   	ret    
  402971:	66 2e 0f 1f 84 00 00 	cs nopw 0x0(%rax,%rax,1)
  402978:	00 00 00 
  40297b:	0f 1f 44 00 00       	nopl   0x0(%rax,%rax,1)

0000000000402980 <_ZN9__gnu_cxx5__ops10_Iter_predIPFiiEEclINS_17__normal_iteratorIPcNSt7__cxx1112basic_stringIcSt11char_traitsIcESaIcEEEEEEEbT_>:
  402980:	55                   	push   %rbp
  402981:	48 89 e5             	mov    %rsp,%rbp
  402984:	48 83 ec 20          	sub    $0x20,%rsp
  402988:	48 89 75 f8          	mov    %rsi,-0x8(%rbp)
  40298c:	48 89 7d f0          	mov    %rdi,-0x10(%rbp)
  402990:	48 8b 45 f0          	mov    -0x10(%rbp),%rax
  402994:	48 8b 00             	mov    (%rax),%rax
  402997:	48 89 45 e8          	mov    %rax,-0x18(%rbp)
  40299b:	48 8d 7d f8          	lea    -0x8(%rbp),%rdi
  40299f:	e8 2c 00 00 00       	call   4029d0 <_ZNK9__gnu_cxx17__normal_iteratorIPcNSt7__cxx1112basic_stringIcSt11char_traitsIcESaIcEEEEdeEv>
  4029a4:	48 89 c1             	mov    %rax,%rcx
  4029a7:	48 8b 45 e8          	mov    -0x18(%rbp),%rax
  4029ab:	0f be 39             	movsbl (%rcx),%edi
  4029ae:	ff d0                	call   *%rax
  4029b0:	83 f8 00             	cmp    $0x0,%eax
  4029b3:	0f 95 c0             	setne  %al
  4029b6:	24 01                	and    $0x1,%al
  4029b8:	0f b6 c0             	movzbl %al,%eax
  4029bb:	48 83 c4 20          	add    $0x20,%rsp
  4029bf:	5d                   	pop    %rbp
  4029c0:	c3                   	ret    
  4029c1:	66 2e 0f 1f 84 00 00 	cs nopw 0x0(%rax,%rax,1)
  4029c8:	00 00 00 
  4029cb:	0f 1f 44 00 00       	nopl   0x0(%rax,%rax,1)

00000000004029d0 <_ZNK9__gnu_cxx17__normal_iteratorIPcNSt7__cxx1112basic_stringIcSt11char_traitsIcESaIcEEEEdeEv>:
  4029d0:	55                   	push   %rbp
  4029d1:	48 89 e5             	mov    %rsp,%rbp
  4029d4:	48 89 7d f8          	mov    %rdi,-0x8(%rbp)
  4029d8:	48 8b 45 f8          	mov    -0x8(%rbp),%rax
  4029dc:	48 8b 00             	mov    (%rax),%rax
  4029df:	5d                   	pop    %rbp
  4029e0:	c3                   	ret    
  4029e1:	66 2e 0f 1f 84 00 00 	cs nopw 0x0(%rax,%rax,1)
  4029e8:	00 00 00 
  4029eb:	0f 1f 44 00 00       	nopl   0x0(%rax,%rax,1)

00000000004029f0 <_ZSt9__find_ifIN9__gnu_cxx17__normal_iteratorIPcNSt7__cxx1112basic_stringIcSt11char_traitsIcESaIcEEEEENS0_5__ops10_Iter_predIPFiiEEEET_SF_SF_T0_St26random_access_iterator_tag>:
  4029f0:	55                   	push   %rbp
  4029f1:	48 89 e5             	mov    %rsp,%rbp
  4029f4:	48 83 ec 70          	sub    $0x70,%rsp
  4029f8:	48 89 7d f0          	mov    %rdi,-0x10(%rbp)
  4029fc:	48 89 75 e8          	mov    %rsi,-0x18(%rbp)
  402a00:	48 89 55 e0          	mov    %rdx,-0x20(%rbp)
  402a04:	48 8d 7d e8          	lea    -0x18(%rbp),%rdi
  402a08:	48 8d 75 f0          	lea    -0x10(%rbp),%rsi
  402a0c:	e8 ff 01 00 00       	call   402c10 <_ZN9__gnu_cxxmiIPcNSt7__cxx1112basic_stringIcSt11char_traitsIcESaIcEEEEENS_17__normal_iteratorIT_T0_E15difference_typeERKSB_SE_>
  402a11:	48 c1 f8 02          	sar    $0x2,%rax
  402a15:	48 89 45 d0          	mov    %rax,-0x30(%rbp)
  402a19:	48 83 7d d0 00       	cmpq   $0x0,-0x30(%rbp)
  402a1e:	0f 8e f1 00 00 00    	jle    402b15 <_ZSt9__find_ifIN9__gnu_cxx17__normal_iteratorIPcNSt7__cxx1112basic_stringIcSt11char_traitsIcESaIcEEEEENS0_5__ops10_Iter_predIPFiiEEEET_SF_SF_T0_St26random_access_iterator_tag+0x125>
  402a24:	48 8b 45 f0          	mov    -0x10(%rbp),%rax
  402a28:	48 89 45 c8          	mov    %rax,-0x38(%rbp)
  402a2c:	48 8b 75 c8          	mov    -0x38(%rbp),%rsi
  402a30:	48 8d 7d e0          	lea    -0x20(%rbp),%rdi
  402a34:	e8 47 ff ff ff       	call   402980 <_ZN9__gnu_cxx5__ops10_Iter_predIPFiiEEclINS_17__normal_iteratorIPcNSt7__cxx1112basic_stringIcSt11char_traitsIcESaIcEEEEEEEbT_>
  402a39:	a8 01                	test   $0x1,%al
  402a3b:	0f 85 05 00 00 00    	jne    402a46 <_ZSt9__find_ifIN9__gnu_cxx17__normal_iteratorIPcNSt7__cxx1112basic_stringIcSt11char_traitsIcESaIcEEEEENS0_5__ops10_Iter_predIPFiiEEEET_SF_SF_T0_St26random_access_iterator_tag+0x56>
  402a41:	e9 0d 00 00 00       	jmp    402a53 <_ZSt9__find_ifIN9__gnu_cxx17__normal_iteratorIPcNSt7__cxx1112basic_stringIcSt11char_traitsIcESaIcEEEEENS0_5__ops10_Iter_predIPFiiEEEET_SF_SF_T0_St26random_access_iterator_tag+0x63>
  402a46:	48 8b 45 f0          	mov    -0x10(%rbp),%rax
  402a4a:	48 89 45 f8          	mov    %rax,-0x8(%rbp)
  402a4e:	e9 a3 01 00 00       	jmp    402bf6 <_ZSt9__find_ifIN9__gnu_cxx17__normal_iteratorIPcNSt7__cxx1112basic_stringIcSt11char_traitsIcESaIcEEEEENS0_5__ops10_Iter_predIPFiiEEEET_SF_SF_T0_St26random_access_iterator_tag+0x206>
  402a53:	48 8d 7d f0          	lea    -0x10(%rbp),%rdi
  402a57:	e8 b4 fe ff ff       	call   402910 <_ZN9__gnu_cxx17__normal_iteratorIPcNSt7__cxx1112basic_stringIcSt11char_traitsIcESaIcEEEEppEv>
  402a5c:	48 8b 45 f0          	mov    -0x10(%rbp),%rax
  402a60:	48 89 45 c0          	mov    %rax,-0x40(%rbp)
  402a64:	48 8b 75 c0          	mov    -0x40(%rbp),%rsi
  402a68:	48 8d 7d e0          	lea    -0x20(%rbp),%rdi
  402a6c:	e8 0f ff ff ff       	call   402980 <_ZN9__gnu_cxx5__ops10_Iter_predIPFiiEEclINS_17__normal_iteratorIPcNSt7__cxx1112basic_stringIcSt11char_traitsIcESaIcEEEEEEEbT_>
  402a71:	a8 01                	test   $0x1,%al
  402a73:	0f 85 05 00 00 00    	jne    402a7e <_ZSt9__find_ifIN9__gnu_cxx17__normal_iteratorIPcNSt7__cxx1112basic_stringIcSt11char_traitsIcESaIcEEEEENS0_5__ops10_Iter_predIPFiiEEEET_SF_SF_T0_St26random_access_iterator_tag+0x8e>
  402a79:	e9 0d 00 00 00       	jmp    402a8b <_ZSt9__find_ifIN9__gnu_cxx17__normal_iteratorIPcNSt7__cxx1112basic_stringIcSt11char_traitsIcESaIcEEEEENS0_5__ops10_Iter_predIPFiiEEEET_SF_SF_T0_St26random_access_iterator_tag+0x9b>
  402a7e:	48 8b 45 f0          	mov    -0x10(%rbp),%rax
  402a82:	48 89 45 f8          	mov    %rax,-0x8(%rbp)
  402a86:	e9 6b 01 00 00       	jmp    402bf6 <_ZSt9__find_ifIN9__gnu_cxx17__normal_iteratorIPcNSt7__cxx1112basic_stringIcSt11char_traitsIcESaIcEEEEENS0_5__ops10_Iter_predIPFiiEEEET_SF_SF_T0_St26random_access_iterator_tag+0x206>
  402a8b:	48 8d 7d f0          	lea    -0x10(%rbp),%rdi
  402a8f:	e8 7c fe ff ff       	call   402910 <_ZN9__gnu_cxx17__normal_iteratorIPcNSt7__cxx1112basic_stringIcSt11char_traitsIcESaIcEEEEppEv>
  402a94:	48 8b 45 f0          	mov    -0x10(%rbp),%rax
  402a98:	48 89 45 b8          	mov    %rax,-0x48(%rbp)
  402a9c:	48 8b 75 b8          	mov    -0x48(%rbp),%rsi
  402aa0:	48 8d 7d e0          	lea    -0x20(%rbp),%rdi
  402aa4:	e8 d7 fe ff ff       	call   402980 <_ZN9__gnu_cxx5__ops10_Iter_predIPFiiEEclINS_17__normal_iteratorIPcNSt7__cxx1112basic_stringIcSt11char_traitsIcESaIcEEEEEEEbT_>
  402aa9:	a8 01                	test   $0x1,%al
  402aab:	0f 85 05 00 00 00    	jne    402ab6 <_ZSt9__find_ifIN9__gnu_cxx17__normal_iteratorIPcNSt7__cxx1112basic_stringIcSt11char_traitsIcESaIcEEEEENS0_5__ops10_Iter_predIPFiiEEEET_SF_SF_T0_St26random_access_iterator_tag+0xc6>
  402ab1:	e9 0d 00 00 00       	jmp    402ac3 <_ZSt9__find_ifIN9__gnu_cxx17__normal_iteratorIPcNSt7__cxx1112basic_stringIcSt11char_traitsIcESaIcEEEEENS0_5__ops10_Iter_predIPFiiEEEET_SF_SF_T0_St26random_access_iterator_tag+0xd3>
  402ab6:	48 8b 45 f0          	mov    -0x10(%rbp),%rax
  402aba:	48 89 45 f8          	mov    %rax,-0x8(%rbp)
  402abe:	e9 33 01 00 00       	jmp    402bf6 <_ZSt9__find_ifIN9__gnu_cxx17__normal_iteratorIPcNSt7__cxx1112basic_stringIcSt11char_traitsIcESaIcEEEEENS0_5__ops10_Iter_predIPFiiEEEET_SF_SF_T0_St26random_access_iterator_tag+0x206>
  402ac3:	48 8d 7d f0          	lea    -0x10(%rbp),%rdi
  402ac7:	e8 44 fe ff ff       	call   402910 <_ZN9__gnu_cxx17__normal_iteratorIPcNSt7__cxx1112basic_stringIcSt11char_traitsIcESaIcEEEEppEv>
  402acc:	48 8b 45 f0          	mov    -0x10(%rbp),%rax
  402ad0:	48 89 45 b0          	mov    %rax,-0x50(%rbp)
  402ad4:	48 8b 75 b0          	mov    -0x50(%rbp),%rsi
  402ad8:	48 8d 7d e0          	lea    -0x20(%rbp),%rdi
  402adc:	e8 9f fe ff ff       	call   402980 <_ZN9__gnu_cxx5__ops10_Iter_predIPFiiEEclINS_17__normal_iteratorIPcNSt7__cxx1112basic_stringIcSt11char_traitsIcESaIcEEEEEEEbT_>
  402ae1:	a8 01                	test   $0x1,%al
  402ae3:	0f 85 05 00 00 00    	jne    402aee <_ZSt9__find_ifIN9__gnu_cxx17__normal_iteratorIPcNSt7__cxx1112basic_stringIcSt11char_traitsIcESaIcEEEEENS0_5__ops10_Iter_predIPFiiEEEET_SF_SF_T0_St26random_access_iterator_tag+0xfe>
  402ae9:	e9 0d 00 00 00       	jmp    402afb <_ZSt9__find_ifIN9__gnu_cxx17__normal_iteratorIPcNSt7__cxx1112basic_stringIcSt11char_traitsIcESaIcEEEEENS0_5__ops10_Iter_predIPFiiEEEET_SF_SF_T0_St26random_access_iterator_tag+0x10b>
  402aee:	48 8b 45 f0          	mov    -0x10(%rbp),%rax
  402af2:	48 89 45 f8          	mov    %rax,-0x8(%rbp)
  402af6:	e9 fb 00 00 00       	jmp    402bf6 <_ZSt9__find_ifIN9__gnu_cxx17__normal_iteratorIPcNSt7__cxx1112basic_stringIcSt11char_traitsIcESaIcEEEEENS0_5__ops10_Iter_predIPFiiEEEET_SF_SF_T0_St26random_access_iterator_tag+0x206>
  402afb:	48 8d 7d f0          	lea    -0x10(%rbp),%rdi
  402aff:	e8 0c fe ff ff       	call   402910 <_ZN9__gnu_cxx17__normal_iteratorIPcNSt7__cxx1112basic_stringIcSt11char_traitsIcESaIcEEEEppEv>
  402b04:	48 8b 45 d0          	mov    -0x30(%rbp),%rax
  402b08:	48 83 c0 ff          	add    $0xffffffffffffffff,%rax
  402b0c:	48 89 45 d0          	mov    %rax,-0x30(%rbp)
  402b10:	e9 04 ff ff ff       	jmp    402a19 <_ZSt9__find_ifIN9__gnu_cxx17__normal_iteratorIPcNSt7__cxx1112basic_stringIcSt11char_traitsIcESaIcEEEEENS0_5__ops10_Iter_predIPFiiEEEET_SF_SF_T0_St26random_access_iterator_tag+0x29>
  402b15:	48 8d 7d e8          	lea    -0x18(%rbp),%rdi
  402b19:	48 8d 75 f0          	lea    -0x10(%rbp),%rsi
  402b1d:	e8 ee 00 00 00       	call   402c10 <_ZN9__gnu_cxxmiIPcNSt7__cxx1112basic_stringIcSt11char_traitsIcESaIcEEEEENS_17__normal_iteratorIT_T0_E15difference_typeERKSB_SE_>
  402b22:	48 89 c1             	mov    %rax,%rcx
  402b25:	48 89 4d 90          	mov    %rcx,-0x70(%rbp)
  402b29:	48 83 e8 03          	sub    $0x3,%rax
  402b2d:	0f 87 bb 00 00 00    	ja     402bee <_ZSt9__find_ifIN9__gnu_cxx17__normal_iteratorIPcNSt7__cxx1112basic_stringIcSt11char_traitsIcESaIcEEEEENS0_5__ops10_Iter_predIPFiiEEEET_SF_SF_T0_St26random_access_iterator_tag+0x1fe>
  402b33:	48 8b 45 90          	mov    -0x70(%rbp),%rax
  402b37:	48 8b 04 c5 08 60 40 	mov    0x406008(,%rax,8),%rax
  402b3e:	00 
  402b3f:	ff e0                	jmp    *%rax
  402b41:	48 8b 45 f0          	mov    -0x10(%rbp),%rax
  402b45:	48 89 45 a8          	mov    %rax,-0x58(%rbp)
  402b49:	48 8b 75 a8          	mov    -0x58(%rbp),%rsi
  402b4d:	48 8d 7d e0          	lea    -0x20(%rbp),%rdi
  402b51:	e8 2a fe ff ff       	call   402980 <_ZN9__gnu_cxx5__ops10_Iter_predIPFiiEEclINS_17__normal_iteratorIPcNSt7__cxx1112basic_stringIcSt11char_traitsIcESaIcEEEEEEEbT_>
  402b56:	a8 01                	test   $0x1,%al
  402b58:	0f 85 05 00 00 00    	jne    402b63 <_ZSt9__find_ifIN9__gnu_cxx17__normal_iteratorIPcNSt7__cxx1112basic_stringIcSt11char_traitsIcESaIcEEEEENS0_5__ops10_Iter_predIPFiiEEEET_SF_SF_T0_St26random_access_iterator_tag+0x173>
  402b5e:	e9 0d 00 00 00       	jmp    402b70 <_ZSt9__find_ifIN9__gnu_cxx17__normal_iteratorIPcNSt7__cxx1112basic_stringIcSt11char_traitsIcESaIcEEEEENS0_5__ops10_Iter_predIPFiiEEEET_SF_SF_T0_St26random_access_iterator_tag+0x180>
  402b63:	48 8b 45 f0          	mov    -0x10(%rbp),%rax
  402b67:	48 89 45 f8          	mov    %rax,-0x8(%rbp)
  402b6b:	e9 86 00 00 00       	jmp    402bf6 <_ZSt9__find_ifIN9__gnu_cxx17__normal_iteratorIPcNSt7__cxx1112basic_stringIcSt11char_traitsIcESaIcEEEEENS0_5__ops10_Iter_predIPFiiEEEET_SF_SF_T0_St26random_access_iterator_tag+0x206>
  402b70:	48 8d 7d f0          	lea    -0x10(%rbp),%rdi
  402b74:	e8 97 fd ff ff       	call   402910 <_ZN9__gnu_cxx17__normal_iteratorIPcNSt7__cxx1112basic_stringIcSt11char_traitsIcESaIcEEEEppEv>
  402b79:	48 8b 45 f0          	mov    -0x10(%rbp),%rax
  402b7d:	48 89 45 a0          	mov    %rax,-0x60(%rbp)
  402b81:	48 8b 75 a0          	mov    -0x60(%rbp),%rsi
  402b85:	48 8d 7d e0          	lea    -0x20(%rbp),%rdi
  402b89:	e8 f2 fd ff ff       	call   402980 <_ZN9__gnu_cxx5__ops10_Iter_predIPFiiEEclINS_17__normal_iteratorIPcNSt7__cxx1112basic_stringIcSt11char_traitsIcESaIcEEEEEEEbT_>
  402b8e:	a8 01                	test   $0x1,%al
  402b90:	0f 85 05 00 00 00    	jne    402b9b <_ZSt9__find_ifIN9__gnu_cxx17__normal_iteratorIPcNSt7__cxx1112basic_stringIcSt11char_traitsIcESaIcEEEEENS0_5__ops10_Iter_predIPFiiEEEET_SF_SF_T0_St26random_access_iterator_tag+0x1ab>
  402b96:	e9 0d 00 00 00       	jmp    402ba8 <_ZSt9__find_ifIN9__gnu_cxx17__normal_iteratorIPcNSt7__cxx1112basic_stringIcSt11char_traitsIcESaIcEEEEENS0_5__ops10_Iter_predIPFiiEEEET_SF_SF_T0_St26random_access_iterator_tag+0x1b8>
  402b9b:	48 8b 45 f0          	mov    -0x10(%rbp),%rax
  402b9f:	48 89 45 f8          	mov    %rax,-0x8(%rbp)
  402ba3:	e9 4e 00 00 00       	jmp    402bf6 <_ZSt9__find_ifIN9__gnu_cxx17__normal_iteratorIPcNSt7__cxx1112basic_stringIcSt11char_traitsIcESaIcEEEEENS0_5__ops10_Iter_predIPFiiEEEET_SF_SF_T0_St26random_access_iterator_tag+0x206>
  402ba8:	48 8d 7d f0          	lea    -0x10(%rbp),%rdi
  402bac:	e8 5f fd ff ff       	call   402910 <_ZN9__gnu_cxx17__normal_iteratorIPcNSt7__cxx1112basic_stringIcSt11char_traitsIcESaIcEEEEppEv>
  402bb1:	48 8b 45 f0          	mov    -0x10(%rbp),%rax
  402bb5:	48 89 45 98          	mov    %rax,-0x68(%rbp)
  402bb9:	48 8b 75 98          	mov    -0x68(%rbp),%rsi
  402bbd:	48 8d 7d e0          	lea    -0x20(%rbp),%rdi
  402bc1:	e8 ba fd ff ff       	call   402980 <_ZN9__gnu_cxx5__ops10_Iter_predIPFiiEEclINS_17__normal_iteratorIPcNSt7__cxx1112basic_stringIcSt11char_traitsIcESaIcEEEEEEEbT_>
  402bc6:	a8 01                	test   $0x1,%al
  402bc8:	0f 85 05 00 00 00    	jne    402bd3 <_ZSt9__find_ifIN9__gnu_cxx17__normal_iteratorIPcNSt7__cxx1112basic_stringIcSt11char_traitsIcESaIcEEEEENS0_5__ops10_Iter_predIPFiiEEEET_SF_SF_T0_St26random_access_iterator_tag+0x1e3>
  402bce:	e9 0d 00 00 00       	jmp    402be0 <_ZSt9__find_ifIN9__gnu_cxx17__normal_iteratorIPcNSt7__cxx1112basic_stringIcSt11char_traitsIcESaIcEEEEENS0_5__ops10_Iter_predIPFiiEEEET_SF_SF_T0_St26random_access_iterator_tag+0x1f0>
  402bd3:	48 8b 45 f0          	mov    -0x10(%rbp),%rax
  402bd7:	48 89 45 f8          	mov    %rax,-0x8(%rbp)
  402bdb:	e9 16 00 00 00       	jmp    402bf6 <_ZSt9__find_ifIN9__gnu_cxx17__normal_iteratorIPcNSt7__cxx1112basic_stringIcSt11char_traitsIcESaIcEEEEENS0_5__ops10_Iter_predIPFiiEEEET_SF_SF_T0_St26random_access_iterator_tag+0x206>
  402be0:	48 8d 7d f0          	lea    -0x10(%rbp),%rdi
  402be4:	e8 27 fd ff ff       	call   402910 <_ZN9__gnu_cxx17__normal_iteratorIPcNSt7__cxx1112basic_stringIcSt11char_traitsIcESaIcEEEEppEv>
  402be9:	e9 00 00 00 00       	jmp    402bee <_ZSt9__find_ifIN9__gnu_cxx17__normal_iteratorIPcNSt7__cxx1112basic_stringIcSt11char_traitsIcESaIcEEEEENS0_5__ops10_Iter_predIPFiiEEEET_SF_SF_T0_St26random_access_iterator_tag+0x1fe>
  402bee:	48 8b 45 e8          	mov    -0x18(%rbp),%rax
  402bf2:	48 89 45 f8          	mov    %rax,-0x8(%rbp)
  402bf6:	48 8b 45 f8          	mov    -0x8(%rbp),%rax
  402bfa:	48 83 c4 70          	add    $0x70,%rsp
  402bfe:	5d                   	pop    %rbp
  402bff:	c3                   	ret    

0000000000402c00 <_ZSt19__iterator_categoryIN9__gnu_cxx17__normal_iteratorIPcNSt7__cxx1112basic_stringIcSt11char_traitsIcESaIcEEEEEENSt15iterator_traitsIT_E17iterator_categoryERKSB_>:
  402c00:	55                   	push   %rbp
  402c01:	48 89 e5             	mov    %rsp,%rbp
  402c04:	48 89 7d f8          	mov    %rdi,-0x8(%rbp)
  402c08:	5d                   	pop    %rbp
  402c09:	c3                   	ret    
  402c0a:	66 0f 1f 44 00 00    	nopw   0x0(%rax,%rax,1)

0000000000402c10 <_ZN9__gnu_cxxmiIPcNSt7__cxx1112basic_stringIcSt11char_traitsIcESaIcEEEEENS_17__normal_iteratorIT_T0_E15difference_typeERKSB_SE_>:
  402c10:	55                   	push   %rbp
  402c11:	48 89 e5             	mov    %rsp,%rbp
  402c14:	48 83 ec 20          	sub    $0x20,%rsp
  402c18:	48 89 7d f8          	mov    %rdi,-0x8(%rbp)
  402c1c:	48 89 75 f0          	mov    %rsi,-0x10(%rbp)
  402c20:	48 8b 7d f8          	mov    -0x8(%rbp),%rdi
  402c24:	e8 27 00 00 00       	call   402c50 <_ZNK9__gnu_cxx17__normal_iteratorIPcNSt7__cxx1112basic_stringIcSt11char_traitsIcESaIcEEEE4baseEv>
  402c29:	48 8b 00             	mov    (%rax),%rax
  402c2c:	48 89 45 e8          	mov    %rax,-0x18(%rbp)
  402c30:	48 8b 7d f0          	mov    -0x10(%rbp),%rdi
  402c34:	e8 17 00 00 00       	call   402c50 <_ZNK9__gnu_cxx17__normal_iteratorIPcNSt7__cxx1112basic_stringIcSt11char_traitsIcESaIcEEEE4baseEv>
  402c39:	48 89 c1             	mov    %rax,%rcx
  402c3c:	48 8b 45 e8          	mov    -0x18(%rbp),%rax
  402c40:	48 8b 09             	mov    (%rcx),%rcx
  402c43:	48 29 c8             	sub    %rcx,%rax
  402c46:	48 83 c4 20          	add    $0x20,%rsp
  402c4a:	5d                   	pop    %rbp
  402c4b:	c3                   	ret    
  402c4c:	0f 1f 40 00          	nopl   0x0(%rax)

0000000000402c50 <_ZNK9__gnu_cxx17__normal_iteratorIPcNSt7__cxx1112basic_stringIcSt11char_traitsIcESaIcEEEE4baseEv>:
  402c50:	55                   	push   %rbp
  402c51:	48 89 e5             	mov    %rsp,%rbp
  402c54:	48 89 7d f8          	mov    %rdi,-0x8(%rbp)
  402c58:	48 8b 45 f8          	mov    -0x8(%rbp),%rax
  402c5c:	5d                   	pop    %rbp
  402c5d:	c3                   	ret    
  402c5e:	66 90                	xchg   %ax,%ax

0000000000402c60 <_ZN9__gnu_cxx5__ops10_Iter_predIPFiiEEC2ES3_>:
  402c60:	55                   	push   %rbp
  402c61:	48 89 e5             	mov    %rsp,%rbp
  402c64:	48 89 7d f8          	mov    %rdi,-0x8(%rbp)
  402c68:	48 89 75 f0          	mov    %rsi,-0x10(%rbp)
  402c6c:	48 8b 45 f8          	mov    -0x8(%rbp),%rax
  402c70:	48 8b 4d f0          	mov    -0x10(%rbp),%rcx
  402c74:	48 89 08             	mov    %rcx,(%rax)
  402c77:	5d                   	pop    %rbp
  402c78:	c3                   	ret    
  402c79:	0f 1f 80 00 00 00 00 	nopl   0x0(%rax)

0000000000402c80 <_ZN3BtcC1ERNSt7__cxx1112basic_stringIcSt11char_traitsIcESaIcEEES6_>:
  402c80:	55                   	push   %rbp
  402c81:	48 89 e5             	mov    %rsp,%rbp
  402c84:	48 81 ec a0 07 00 00 	sub    $0x7a0,%rsp
  402c8b:	48 89 d1             	mov    %rdx,%rcx
  402c8e:	48 89 7d f8          	mov    %rdi,-0x8(%rbp)
  402c92:	48 89 75 f0          	mov    %rsi,-0x10(%rbp)
  402c96:	48 89 4d e8          	mov    %rcx,-0x18(%rbp)
  402c9a:	48 8b 7d f8          	mov    -0x8(%rbp),%rdi
  402c9e:	48 89 bd 18 f9 ff ff 	mov    %rdi,-0x6e8(%rbp)
  402ca5:	48 89 f9             	mov    %rdi,%rcx
  402ca8:	48 89 8d 10 f9 ff ff 	mov    %rcx,-0x6f0(%rbp)
  402caf:	e8 1c 16 00 00       	call   4042d0 <_ZNSt3mapINSt7__cxx1112basic_stringIcSt11char_traitsIcESaIcEEEfSt4lessIS5_ESaISt4pairIKS5_fEEEC2Ev>
  402cb4:	48 8b bd 18 f9 ff ff 	mov    -0x6e8(%rbp),%rdi
  402cbb:	48 83 c7 30          	add    $0x30,%rdi
  402cbf:	48 89 bd 20 f9 ff ff 	mov    %rdi,-0x6e0(%rbp)
  402cc6:	e8 b5 f5 ff ff       	call   402280 <_ZNSt7__cxx1112basic_stringIcSt11char_traitsIcESaIcEEC1Ev@plt>
  402ccb:	e9 00 00 00 00       	jmp    402cd0 <_ZN3BtcC1ERNSt7__cxx1112basic_stringIcSt11char_traitsIcESaIcEEES6_+0x50>
  402cd0:	48 8b 7d f0          	mov    -0x10(%rbp),%rdi
  402cd4:	e8 07 f4 ff ff       	call   4020e0 <_ZNKSt7__cxx1112basic_stringIcSt11char_traitsIcESaIcEE5c_strEv@plt>
  402cd9:	48 89 c1             	mov    %rax,%rcx
  402cdc:	48 89 8d 08 f9 ff ff 	mov    %rcx,-0x6f8(%rbp)
  402ce3:	e9 00 00 00 00       	jmp    402ce8 <_ZN3BtcC1ERNSt7__cxx1112basic_stringIcSt11char_traitsIcESaIcEEES6_+0x68>
  402ce8:	48 8b b5 08 f9 ff ff 	mov    -0x6f8(%rbp),%rsi
  402cef:	48 8d bd d0 fd ff ff 	lea    -0x230(%rbp),%rdi
  402cf6:	ba 08 00 00 00       	mov    $0x8,%edx
  402cfb:	e8 40 f6 ff ff       	call   402340 <_ZNSt14basic_ifstreamIcSt11char_traitsIcEEC1EPKcSt13_Ios_Openmode@plt>
  402d00:	e9 00 00 00 00       	jmp    402d05 <_ZN3BtcC1ERNSt7__cxx1112basic_stringIcSt11char_traitsIcESaIcEEES6_+0x85>
  402d05:	48 8d bd d0 fd ff ff 	lea    -0x230(%rbp),%rdi
  402d0c:	e8 cf f5 ff ff       	call   4022e0 <_ZNSt14basic_ifstreamIcSt11char_traitsIcEE7is_openEv@plt>
  402d11:	88 c1                	mov    %al,%cl
  402d13:	88 8d 07 f9 ff ff    	mov    %cl,-0x6f9(%rbp)
  402d19:	e9 00 00 00 00       	jmp    402d1e <_ZN3BtcC1ERNSt7__cxx1112basic_stringIcSt11char_traitsIcESaIcEEES6_+0x9e>
  402d1e:	8a 85 07 f9 ff ff    	mov    -0x6f9(%rbp),%al
  402d24:	a8 01                	test   $0x1,%al
  402d26:	0f 85 da 00 00 00    	jne    402e06 <_ZN3BtcC1ERNSt7__cxx1112basic_stringIcSt11char_traitsIcESaIcEEES6_+0x186>
  402d2c:	e9 00 00 00 00       	jmp    402d31 <_ZN3BtcC1ERNSt7__cxx1112basic_stringIcSt11char_traitsIcESaIcEEES6_+0xb1>
  402d31:	bf 00 92 40 00       	mov    $0x409200,%edi
  402d36:	be 38 60 40 00       	mov    $0x406038,%esi
  402d3b:	e8 80 f4 ff ff       	call   4021c0 <_ZStlsISt11char_traitsIcEERSt13basic_ostreamIcT_ES5_PKc@plt>
  402d40:	48 89 c1             	mov    %rax,%rcx
  402d43:	48 89 8d f8 f8 ff ff 	mov    %rcx,-0x708(%rbp)
  402d4a:	e9 00 00 00 00       	jmp    402d4f <_ZN3BtcC1ERNSt7__cxx1112basic_stringIcSt11char_traitsIcESaIcEEES6_+0xcf>
  402d4f:	48 8b bd f8 f8 ff ff 	mov    -0x708(%rbp),%rdi
  402d56:	be 3e 60 40 00       	mov    $0x40603e,%esi
  402d5b:	e8 60 f4 ff ff       	call   4021c0 <_ZStlsISt11char_traitsIcEERSt13basic_ostreamIcT_ES5_PKc@plt>
  402d60:	48 89 c1             	mov    %rax,%rcx
  402d63:	48 89 8d f0 f8 ff ff 	mov    %rcx,-0x710(%rbp)
  402d6a:	e9 00 00 00 00       	jmp    402d6f <_ZN3BtcC1ERNSt7__cxx1112basic_stringIcSt11char_traitsIcESaIcEEES6_+0xef>
  402d6f:	48 8b bd f0 f8 ff ff 	mov    -0x710(%rbp),%rdi
  402d76:	48 8b 75 f0          	mov    -0x10(%rbp),%rsi
  402d7a:	e8 21 f4 ff ff       	call   4021a0 <_ZStlsIcSt11char_traitsIcESaIcEERSt13basic_ostreamIT_T0_ES7_RKNSt7__cxx1112basic_stringIS4_S5_T1_EE@plt>
  402d7f:	48 89 c1             	mov    %rax,%rcx
  402d82:	48 89 8d e8 f8 ff ff 	mov    %rcx,-0x718(%rbp)
  402d89:	e9 00 00 00 00       	jmp    402d8e <_ZN3BtcC1ERNSt7__cxx1112basic_stringIcSt11char_traitsIcESaIcEEES6_+0x10e>
  402d8e:	48 8b bd e8 f8 ff ff 	mov    -0x718(%rbp),%rdi
  402d95:	be 28 60 40 00       	mov    $0x406028,%esi
  402d9a:	e8 21 f4 ff ff       	call   4021c0 <_ZStlsISt11char_traitsIcEERSt13basic_ostreamIcT_ES5_PKc@plt>
  402d9f:	48 89 c1             	mov    %rax,%rcx
  402da2:	48 89 8d e0 f8 ff ff 	mov    %rcx,-0x720(%rbp)
  402da9:	e9 00 00 00 00       	jmp    402dae <_ZN3BtcC1ERNSt7__cxx1112basic_stringIcSt11char_traitsIcESaIcEEES6_+0x12e>
  402dae:	48 8b bd e0 f8 ff ff 	mov    -0x720(%rbp),%rdi
  402db5:	be 00 21 40 00       	mov    $0x402100,%esi
  402dba:	e8 51 f4 ff ff       	call   402210 <_ZNSolsEPFRSoS_E@plt>
  402dbf:	e9 00 00 00 00       	jmp    402dc4 <_ZN3BtcC1ERNSt7__cxx1112basic_stringIcSt11char_traitsIcESaIcEEES6_+0x144>
  402dc4:	c7 85 cc fd ff ff 01 	movl   $0x1,-0x234(%rbp)
  402dcb:	00 00 00 
  402dce:	e9 0a 06 00 00       	jmp    4033dd <_ZN3BtcC1ERNSt7__cxx1112basic_stringIcSt11char_traitsIcESaIcEEES6_+0x75d>
  402dd3:	48 89 c1             	mov    %rax,%rcx
  402dd6:	89 d0                	mov    %edx,%eax
  402dd8:	48 89 4d e0          	mov    %rcx,-0x20(%rbp)
  402ddc:	89 45 dc             	mov    %eax,-0x24(%rbp)
  402ddf:	e9 70 06 00 00       	jmp    403454 <_ZN3BtcC1ERNSt7__cxx1112basic_stringIcSt11char_traitsIcESaIcEEES6_+0x7d4>
  402de4:	48 89 c1             	mov    %rax,%rcx
  402de7:	89 d0                	mov    %edx,%eax
  402de9:	48 89 4d e0          	mov    %rcx,-0x20(%rbp)
  402ded:	89 45 dc             	mov    %eax,-0x24(%rbp)
  402df0:	e9 49 06 00 00       	jmp    40343e <_ZN3BtcC1ERNSt7__cxx1112basic_stringIcSt11char_traitsIcESaIcEEES6_+0x7be>
  402df5:	48 89 c1             	mov    %rax,%rcx
  402df8:	89 d0                	mov    %edx,%eax
  402dfa:	48 89 4d e0          	mov    %rcx,-0x20(%rbp)
  402dfe:	89 45 dc             	mov    %eax,-0x24(%rbp)
  402e01:	e9 22 06 00 00       	jmp    403428 <_ZN3BtcC1ERNSt7__cxx1112basic_stringIcSt11char_traitsIcESaIcEEES6_+0x7a8>
  402e06:	48 8d bd a8 fd ff ff 	lea    -0x258(%rbp),%rdi
  402e0d:	e8 6e f4 ff ff       	call   402280 <_ZNSt7__cxx1112basic_stringIcSt11char_traitsIcESaIcEEC1Ev@plt>
  402e12:	e9 00 00 00 00       	jmp    402e17 <_ZN3BtcC1ERNSt7__cxx1112basic_stringIcSt11char_traitsIcESaIcEEES6_+0x197>
  402e17:	e9 00 00 00 00       	jmp    402e1c <_ZN3BtcC1ERNSt7__cxx1112basic_stringIcSt11char_traitsIcESaIcEEES6_+0x19c>
  402e1c:	48 8d bd d0 fd ff ff 	lea    -0x230(%rbp),%rdi
  402e23:	48 8d b5 a8 fd ff ff 	lea    -0x258(%rbp),%rsi
  402e2a:	e8 31 f2 ff ff       	call   402060 <_ZSt7getlineIcSt11char_traitsIcESaIcEERSt13basic_istreamIT_T0_ES7_RNSt7__cxx1112basic_stringIS4_S5_T1_EE@plt>
  402e2f:	48 89 c1             	mov    %rax,%rcx
  402e32:	48 89 8d d8 f8 ff ff 	mov    %rcx,-0x728(%rbp)
  402e39:	e9 00 00 00 00       	jmp    402e3e <_ZN3BtcC1ERNSt7__cxx1112basic_stringIcSt11char_traitsIcESaIcEEES6_+0x1be>
  402e3e:	48 8b bd d8 f8 ff ff 	mov    -0x728(%rbp),%rdi
  402e45:	48 8b 07             	mov    (%rdi),%rax
  402e48:	48 8b 40 e8          	mov    -0x18(%rax),%rax
  402e4c:	48 01 c7             	add    %rax,%rdi
  402e4f:	e8 6c f4 ff ff       	call   4022c0 <_ZNKSt9basic_iosIcSt11char_traitsIcEEcvPvEv@plt>
  402e54:	48 89 c1             	mov    %rax,%rcx
  402e57:	48 89 8d d0 f8 ff ff 	mov    %rcx,-0x730(%rbp)
  402e5e:	e9 00 00 00 00       	jmp    402e63 <_ZN3BtcC1ERNSt7__cxx1112basic_stringIcSt11char_traitsIcESaIcEEES6_+0x1e3>
  402e63:	48 8b 85 d0 f8 ff ff 	mov    -0x730(%rbp),%rax
  402e6a:	48 83 f8 00          	cmp    $0x0,%rax
  402e6e:	0f 84 e4 02 00 00    	je     403158 <_ZN3BtcC1ERNSt7__cxx1112basic_stringIcSt11char_traitsIcESaIcEEES6_+0x4d8>
  402e74:	31 c0                	xor    %eax,%eax
  402e76:	89 c2                	mov    %eax,%edx
  402e78:	48 8d bd a8 fd ff ff 	lea    -0x258(%rbp),%rdi
  402e7f:	be 2c 00 00 00       	mov    $0x2c,%esi
  402e84:	e8 d7 f3 ff ff       	call   402260 <_ZNKSt7__cxx1112basic_stringIcSt11char_traitsIcESaIcEE4findEcm@plt>
  402e89:	48 89 c1             	mov    %rax,%rcx
  402e8c:	48 89 8d c8 f8 ff ff 	mov    %rcx,-0x738(%rbp)
  402e93:	e9 00 00 00 00       	jmp    402e98 <_ZN3BtcC1ERNSt7__cxx1112basic_stringIcSt11char_traitsIcESaIcEEES6_+0x218>
  402e98:	48 8b 85 c8 f8 ff ff 	mov    -0x738(%rbp),%rax
  402e9f:	48 89 85 a0 fd ff ff 	mov    %rax,-0x260(%rbp)
  402ea6:	48 83 bd a0 fd ff ff 	cmpq   $0xffffffffffffffff,-0x260(%rbp)
  402ead:	ff 
  402eae:	0f 84 9f 02 00 00    	je     403153 <_ZN3BtcC1ERNSt7__cxx1112basic_stringIcSt11char_traitsIcESaIcEEES6_+0x4d3>
  402eb4:	48 8b 8d a0 fd ff ff 	mov    -0x260(%rbp),%rcx
  402ebb:	31 d2                	xor    %edx,%edx
  402ebd:	48 8d bd 80 fd ff ff 	lea    -0x280(%rbp),%rdi
  402ec4:	48 8d b5 a8 fd ff ff 	lea    -0x258(%rbp),%rsi
  402ecb:	e8 20 f3 ff ff       	call   4021f0 <_ZNKSt7__cxx1112basic_stringIcSt11char_traitsIcESaIcEE6substrEmm@plt>
  402ed0:	e9 00 00 00 00       	jmp    402ed5 <_ZN3BtcC1ERNSt7__cxx1112basic_stringIcSt11char_traitsIcESaIcEEES6_+0x255>
  402ed5:	48 8b 95 a0 fd ff ff 	mov    -0x260(%rbp),%rdx
  402edc:	48 83 c2 01          	add    $0x1,%rdx
  402ee0:	48 8d bd d8 fb ff ff 	lea    -0x428(%rbp),%rdi
  402ee7:	48 8d b5 a8 fd ff ff 	lea    -0x258(%rbp),%rsi
  402eee:	48 c7 c1 ff ff ff ff 	mov    $0xffffffffffffffff,%rcx
  402ef5:	e8 f6 f2 ff ff       	call   4021f0 <_ZNKSt7__cxx1112basic_stringIcSt11char_traitsIcESaIcEE6substrEmm@plt>
  402efa:	e9 00 00 00 00       	jmp    402eff <_ZN3BtcC1ERNSt7__cxx1112basic_stringIcSt11char_traitsIcESaIcEEES6_+0x27f>
  402eff:	bf 10 00 00 00       	mov    $0x10,%edi
  402f04:	be 08 00 00 00       	mov    $0x8,%esi
  402f09:	e8 e2 13 00 00       	call   4042f0 <_ZStorSt13_Ios_OpenmodeS_>
  402f0e:	89 c1                	mov    %eax,%ecx
  402f10:	89 8d c4 f8 ff ff    	mov    %ecx,-0x73c(%rbp)
  402f16:	e9 00 00 00 00       	jmp    402f1b <_ZN3BtcC1ERNSt7__cxx1112basic_stringIcSt11char_traitsIcESaIcEEES6_+0x29b>
  402f1b:	8b 95 c4 f8 ff ff    	mov    -0x73c(%rbp),%edx
  402f21:	48 8d bd f8 fb ff ff 	lea    -0x408(%rbp),%rdi
  402f28:	48 8d b5 d8 fb ff ff 	lea    -0x428(%rbp),%rsi
  402f2f:	e8 9c f3 ff ff       	call   4022d0 <_ZNSt7__cxx1118basic_stringstreamIcSt11char_traitsIcESaIcEEC1ERKNS_12basic_stringIcS2_S3_EESt13_Ios_Openmode@plt>
  402f34:	e9 00 00 00 00       	jmp    402f39 <_ZN3BtcC1ERNSt7__cxx1112basic_stringIcSt11char_traitsIcESaIcEEES6_+0x2b9>
  402f39:	48 8d bd d8 fb ff ff 	lea    -0x428(%rbp),%rdi
  402f40:	e8 db f1 ff ff       	call   402120 <_ZNSt7__cxx1112basic_stringIcSt11char_traitsIcESaIcEED1Ev@plt>
  402f45:	e9 00 00 00 00       	jmp    402f4a <_ZN3BtcC1ERNSt7__cxx1112basic_stringIcSt11char_traitsIcESaIcEEES6_+0x2ca>
  402f4a:	48 8d bd f8 fb ff ff 	lea    -0x408(%rbp),%rdi
  402f51:	48 8d b5 d4 fb ff ff 	lea    -0x42c(%rbp),%rsi
  402f58:	e8 13 f1 ff ff       	call   402070 <_ZNSirsERf@plt>
  402f5d:	e9 00 00 00 00       	jmp    402f62 <_ZN3BtcC1ERNSt7__cxx1112basic_stringIcSt11char_traitsIcESaIcEEES6_+0x2e2>
  402f62:	48 8b 8d 10 f9 ff ff 	mov    -0x6f0(%rbp),%rcx
  402f69:	48 89 8d b8 f8 ff ff 	mov    %rcx,-0x748(%rbp)
  402f70:	48 8d bd 60 fb ff ff 	lea    -0x4a0(%rbp),%rdi
  402f77:	48 8d b5 80 fd ff ff 	lea    -0x280(%rbp),%rsi
  402f7e:	e8 6d f1 ff ff       	call   4020f0 <_ZNSt7__cxx1112basic_stringIcSt11char_traitsIcESaIcEEC1ERKS4_@plt>
  402f83:	e9 00 00 00 00       	jmp    402f88 <_ZN3BtcC1ERNSt7__cxx1112basic_stringIcSt11char_traitsIcESaIcEEES6_+0x308>
  402f88:	f3 0f 10 85 d4 fb ff 	movss  -0x42c(%rbp),%xmm0
  402f8f:	ff 
  402f90:	48 8d bd 80 fb ff ff 	lea    -0x480(%rbp),%rdi
  402f97:	48 8d b5 60 fb ff ff 	lea    -0x4a0(%rbp),%rsi
  402f9e:	e8 ad 13 00 00       	call   404350 <_ZSt9make_pairINSt7__cxx1112basic_stringIcSt11char_traitsIcESaIcEEEfESt4pairIT_T0_ES7_S8_>
  402fa3:	e9 00 00 00 00       	jmp    402fa8 <_ZN3BtcC1ERNSt7__cxx1112basic_stringIcSt11char_traitsIcESaIcEEES6_+0x328>
  402fa8:	48 8d bd a8 fb ff ff 	lea    -0x458(%rbp),%rdi
  402faf:	48 8d b5 80 fb ff ff 	lea    -0x480(%rbp),%rsi
  402fb6:	e8 c5 13 00 00       	call   404380 <_ZNSt4pairIKNSt7__cxx1112basic_stringIcSt11char_traitsIcESaIcEEEfEC2IS5_fEERKS_IT_T0_E>
  402fbb:	e9 00 00 00 00       	jmp    402fc0 <_ZN3BtcC1ERNSt7__cxx1112basic_stringIcSt11char_traitsIcESaIcEEES6_+0x340>
  402fc0:	48 8b bd b8 f8 ff ff 	mov    -0x748(%rbp),%rdi
  402fc7:	48 8d b5 a8 fb ff ff 	lea    -0x458(%rbp),%rsi
  402fce:	e8 3d 13 00 00       	call   404310 <_ZNSt3mapINSt7__cxx1112basic_stringIcSt11char_traitsIcESaIcEEEfSt4lessIS5_ESaISt4pairIKS5_fEEE6insertERKSA_>
  402fd3:	48 89 c1             	mov    %rax,%rcx
  402fd6:	40 88 d6             	mov    %dl,%sil
  402fd9:	40 88 b5 af f8 ff ff 	mov    %sil,-0x751(%rbp)
  402fe0:	48 89 8d b0 f8 ff ff 	mov    %rcx,-0x750(%rbp)
  402fe7:	e9 00 00 00 00       	jmp    402fec <_ZN3BtcC1ERNSt7__cxx1112basic_stringIcSt11char_traitsIcESaIcEEES6_+0x36c>
  402fec:	8a 8d af f8 ff ff    	mov    -0x751(%rbp),%cl
  402ff2:	48 8b b5 b0 f8 ff ff 	mov    -0x750(%rbp),%rsi
  402ff9:	48 89 b5 50 fb ff ff 	mov    %rsi,-0x4b0(%rbp)
  403000:	88 8d 58 fb ff ff    	mov    %cl,-0x4a8(%rbp)
  403006:	48 8d bd a8 fb ff ff 	lea    -0x458(%rbp),%rdi
  40300d:	e8 ae 13 00 00       	call   4043c0 <_ZNSt4pairIKNSt7__cxx1112basic_stringIcSt11char_traitsIcESaIcEEEfED2Ev>
  403012:	e9 00 00 00 00       	jmp    403017 <_ZN3BtcC1ERNSt7__cxx1112basic_stringIcSt11char_traitsIcESaIcEEES6_+0x397>
  403017:	48 8d bd 80 fb ff ff 	lea    -0x480(%rbp),%rdi
  40301e:	e8 bd 13 00 00       	call   4043e0 <_ZNSt4pairINSt7__cxx1112basic_stringIcSt11char_traitsIcESaIcEEEfED2Ev>
  403023:	e9 00 00 00 00       	jmp    403028 <_ZN3BtcC1ERNSt7__cxx1112basic_stringIcSt11char_traitsIcESaIcEEES6_+0x3a8>
  403028:	48 8d bd 60 fb ff ff 	lea    -0x4a0(%rbp),%rdi
  40302f:	e8 ec f0 ff ff       	call   402120 <_ZNSt7__cxx1112basic_stringIcSt11char_traitsIcESaIcEED1Ev@plt>
  403034:	e9 00 00 00 00       	jmp    403039 <_ZN3BtcC1ERNSt7__cxx1112basic_stringIcSt11char_traitsIcESaIcEEES6_+0x3b9>
  403039:	48 8d bd f8 fb ff ff 	lea    -0x408(%rbp),%rdi
  403040:	e8 0b f1 ff ff       	call   402150 <_ZNSt7__cxx1118basic_stringstreamIcSt11char_traitsIcESaIcEED1Ev@plt>
  403045:	e9 00 00 00 00       	jmp    40304a <_ZN3BtcC1ERNSt7__cxx1112basic_stringIcSt11char_traitsIcESaIcEEES6_+0x3ca>
  40304a:	48 8d bd 80 fd ff ff 	lea    -0x280(%rbp),%rdi
  403051:	e8 ca f0 ff ff       	call   402120 <_ZNSt7__cxx1112basic_stringIcSt11char_traitsIcESaIcEED1Ev@plt>
  403056:	e9 00 00 00 00       	jmp    40305b <_ZN3BtcC1ERNSt7__cxx1112basic_stringIcSt11char_traitsIcESaIcEEES6_+0x3db>
  40305b:	e9 f3 00 00 00       	jmp    403153 <_ZN3BtcC1ERNSt7__cxx1112basic_stringIcSt11char_traitsIcESaIcEEES6_+0x4d3>
  403060:	48 89 c1             	mov    %rax,%rcx
  403063:	89 d0                	mov    %edx,%eax
  403065:	48 89 4d e0          	mov    %rcx,-0x20(%rbp)
  403069:	89 45 dc             	mov    %eax,-0x24(%rbp)
  40306c:	e9 a1 03 00 00       	jmp    403412 <_ZN3BtcC1ERNSt7__cxx1112basic_stringIcSt11char_traitsIcESaIcEEES6_+0x792>
  403071:	48 89 c1             	mov    %rax,%rcx
  403074:	89 d0                	mov    %edx,%eax
  403076:	48 89 4d e0          	mov    %rcx,-0x20(%rbp)
  40307a:	89 45 dc             	mov    %eax,-0x24(%rbp)
  40307d:	e9 bb 00 00 00       	jmp    40313d <_ZN3BtcC1ERNSt7__cxx1112basic_stringIcSt11char_traitsIcESaIcEEES6_+0x4bd>
  403082:	48 89 d1             	mov    %rdx,%rcx
  403085:	48 89 c6             	mov    %rax,%rsi
  403088:	48 89 75 e0          	mov    %rsi,-0x20(%rbp)
  40308c:	89 4d dc             	mov    %ecx,-0x24(%rbp)
  40308f:	48 8d bd d8 fb ff ff 	lea    -0x428(%rbp),%rdi
  403096:	e8 85 f0 ff ff       	call   402120 <_ZNSt7__cxx1112basic_stringIcSt11char_traitsIcESaIcEED1Ev@plt>
  40309b:	e9 00 00 00 00       	jmp    4030a0 <_ZN3BtcC1ERNSt7__cxx1112basic_stringIcSt11char_traitsIcESaIcEEES6_+0x420>
  4030a0:	e9 98 00 00 00       	jmp    40313d <_ZN3BtcC1ERNSt7__cxx1112basic_stringIcSt11char_traitsIcESaIcEEES6_+0x4bd>
  4030a5:	48 89 c1             	mov    %rax,%rcx
  4030a8:	89 d0                	mov    %edx,%eax
  4030aa:	48 89 4d e0          	mov    %rcx,-0x20(%rbp)
  4030ae:	89 45 dc             	mov    %eax,-0x24(%rbp)
  4030b1:	e9 71 00 00 00       	jmp    403127 <_ZN3BtcC1ERNSt7__cxx1112basic_stringIcSt11char_traitsIcESaIcEEES6_+0x4a7>
  4030b6:	48 89 c1             	mov    %rax,%rcx
  4030b9:	89 d0                	mov    %edx,%eax
  4030bb:	48 89 4d e0          	mov    %rcx,-0x20(%rbp)
  4030bf:	89 45 dc             	mov    %eax,-0x24(%rbp)
  4030c2:	e9 4a 00 00 00       	jmp    403111 <_ZN3BtcC1ERNSt7__cxx1112basic_stringIcSt11char_traitsIcESaIcEEES6_+0x491>
  4030c7:	48 89 c1             	mov    %rax,%rcx
  4030ca:	89 d0                	mov    %edx,%eax
  4030cc:	48 89 4d e0          	mov    %rcx,-0x20(%rbp)
  4030d0:	89 45 dc             	mov    %eax,-0x24(%rbp)
  4030d3:	e9 23 00 00 00       	jmp    4030fb <_ZN3BtcC1ERNSt7__cxx1112basic_stringIcSt11char_traitsIcESaIcEEES6_+0x47b>
  4030d8:	48 89 d1             	mov    %rdx,%rcx
  4030db:	48 89 c6             	mov    %rax,%rsi
  4030de:	48 89 75 e0          	mov    %rsi,-0x20(%rbp)
  4030e2:	89 4d dc             	mov    %ecx,-0x24(%rbp)
  4030e5:	48 8d bd a8 fb ff ff 	lea    -0x458(%rbp),%rdi
  4030ec:	e8 cf 12 00 00       	call   4043c0 <_ZNSt4pairIKNSt7__cxx1112basic_stringIcSt11char_traitsIcESaIcEEEfED2Ev>
  4030f1:	e9 00 00 00 00       	jmp    4030f6 <_ZN3BtcC1ERNSt7__cxx1112basic_stringIcSt11char_traitsIcESaIcEEES6_+0x476>
  4030f6:	e9 00 00 00 00       	jmp    4030fb <_ZN3BtcC1ERNSt7__cxx1112basic_stringIcSt11char_traitsIcESaIcEEES6_+0x47b>
  4030fb:	48 8d bd 80 fb ff ff 	lea    -0x480(%rbp),%rdi
  403102:	e8 d9 12 00 00       	call   4043e0 <_ZNSt4pairINSt7__cxx1112basic_stringIcSt11char_traitsIcESaIcEEEfED2Ev>
  403107:	e9 00 00 00 00       	jmp    40310c <_ZN3BtcC1ERNSt7__cxx1112basic_stringIcSt11char_traitsIcESaIcEEES6_+0x48c>
  40310c:	e9 00 00 00 00       	jmp    403111 <_ZN3BtcC1ERNSt7__cxx1112basic_stringIcSt11char_traitsIcESaIcEEES6_+0x491>
  403111:	48 8d bd 60 fb ff ff 	lea    -0x4a0(%rbp),%rdi
  403118:	e8 03 f0 ff ff       	call   402120 <_ZNSt7__cxx1112basic_stringIcSt11char_traitsIcESaIcEED1Ev@plt>
  40311d:	e9 00 00 00 00       	jmp    403122 <_ZN3BtcC1ERNSt7__cxx1112basic_stringIcSt11char_traitsIcESaIcEEES6_+0x4a2>
  403122:	e9 00 00 00 00       	jmp    403127 <_ZN3BtcC1ERNSt7__cxx1112basic_stringIcSt11char_traitsIcESaIcEEES6_+0x4a7>
  403127:	48 8d bd f8 fb ff ff 	lea    -0x408(%rbp),%rdi
  40312e:	e8 1d f0 ff ff       	call   402150 <_ZNSt7__cxx1118basic_stringstreamIcSt11char_traitsIcESaIcEED1Ev@plt>
  403133:	e9 00 00 00 00       	jmp    403138 <_ZN3BtcC1ERNSt7__cxx1112basic_stringIcSt11char_traitsIcESaIcEEES6_+0x4b8>
  403138:	e9 00 00 00 00       	jmp    40313d <_ZN3BtcC1ERNSt7__cxx1112basic_stringIcSt11char_traitsIcESaIcEEES6_+0x4bd>
  40313d:	48 8d bd 80 fd ff ff 	lea    -0x280(%rbp),%rdi
  403144:	e8 d7 ef ff ff       	call   402120 <_ZNSt7__cxx1112basic_stringIcSt11char_traitsIcESaIcEED1Ev@plt>
  403149:	e9 00 00 00 00       	jmp    40314e <_ZN3BtcC1ERNSt7__cxx1112basic_stringIcSt11char_traitsIcESaIcEEES6_+0x4ce>
  40314e:	e9 bf 02 00 00       	jmp    403412 <_ZN3BtcC1ERNSt7__cxx1112basic_stringIcSt11char_traitsIcESaIcEEES6_+0x792>
  403153:	e9 c4 fc ff ff       	jmp    402e1c <_ZN3BtcC1ERNSt7__cxx1112basic_stringIcSt11char_traitsIcESaIcEEES6_+0x19c>
  403158:	48 8d bd d0 fd ff ff 	lea    -0x230(%rbp),%rdi
  40315f:	e8 1c ef ff ff       	call   402080 <_ZNSt14basic_ifstreamIcSt11char_traitsIcEE5closeEv@plt>
  403164:	e9 00 00 00 00       	jmp    403169 <_ZN3BtcC1ERNSt7__cxx1112basic_stringIcSt11char_traitsIcESaIcEEES6_+0x4e9>
  403169:	48 8b 7d e8          	mov    -0x18(%rbp),%rdi
  40316d:	e8 6e ef ff ff       	call   4020e0 <_ZNKSt7__cxx1112basic_stringIcSt11char_traitsIcESaIcEE5c_strEv@plt>
  403172:	48 89 c1             	mov    %rax,%rcx
  403175:	48 89 8d a0 f8 ff ff 	mov    %rcx,-0x760(%rbp)
  40317c:	e9 00 00 00 00       	jmp    403181 <_ZN3BtcC1ERNSt7__cxx1112basic_stringIcSt11char_traitsIcESaIcEEES6_+0x501>
  403181:	48 8b b5 a0 f8 ff ff 	mov    -0x760(%rbp),%rsi
  403188:	48 8d bd 48 f9 ff ff 	lea    -0x6b8(%rbp),%rdi
  40318f:	ba 08 00 00 00       	mov    $0x8,%edx
  403194:	e8 a7 f1 ff ff       	call   402340 <_ZNSt14basic_ifstreamIcSt11char_traitsIcEEC1EPKcSt13_Ios_Openmode@plt>
  403199:	e9 00 00 00 00       	jmp    40319e <_ZN3BtcC1ERNSt7__cxx1112basic_stringIcSt11char_traitsIcESaIcEEES6_+0x51e>
  40319e:	48 8d bd 48 f9 ff ff 	lea    -0x6b8(%rbp),%rdi
  4031a5:	e8 36 f1 ff ff       	call   4022e0 <_ZNSt14basic_ifstreamIcSt11char_traitsIcEE7is_openEv@plt>
  4031aa:	88 c1                	mov    %al,%cl
  4031ac:	88 8d 9f f8 ff ff    	mov    %cl,-0x761(%rbp)
  4031b2:	e9 00 00 00 00       	jmp    4031b7 <_ZN3BtcC1ERNSt7__cxx1112basic_stringIcSt11char_traitsIcESaIcEEES6_+0x537>
  4031b7:	8a 85 9f f8 ff ff    	mov    -0x761(%rbp),%al
  4031bd:	a8 01                	test   $0x1,%al
  4031bf:	0f 85 b8 00 00 00    	jne    40327d <_ZN3BtcC1ERNSt7__cxx1112basic_stringIcSt11char_traitsIcESaIcEEES6_+0x5fd>
  4031c5:	e9 00 00 00 00       	jmp    4031ca <_ZN3BtcC1ERNSt7__cxx1112basic_stringIcSt11char_traitsIcESaIcEEES6_+0x54a>
  4031ca:	bf 00 92 40 00       	mov    $0x409200,%edi
  4031cf:	be 38 60 40 00       	mov    $0x406038,%esi
  4031d4:	e8 e7 ef ff ff       	call   4021c0 <_ZStlsISt11char_traitsIcEERSt13basic_ostreamIcT_ES5_PKc@plt>
  4031d9:	48 89 c1             	mov    %rax,%rcx
  4031dc:	48 89 8d 90 f8 ff ff 	mov    %rcx,-0x770(%rbp)
  4031e3:	e9 00 00 00 00       	jmp    4031e8 <_ZN3BtcC1ERNSt7__cxx1112basic_stringIcSt11char_traitsIcESaIcEEES6_+0x568>
  4031e8:	48 8b bd 90 f8 ff ff 	mov    -0x770(%rbp),%rdi
  4031ef:	be 5a 60 40 00       	mov    $0x40605a,%esi
  4031f4:	e8 c7 ef ff ff       	call   4021c0 <_ZStlsISt11char_traitsIcEERSt13basic_ostreamIcT_ES5_PKc@plt>
  4031f9:	48 89 c1             	mov    %rax,%rcx
  4031fc:	48 89 8d 88 f8 ff ff 	mov    %rcx,-0x778(%rbp)
  403203:	e9 00 00 00 00       	jmp    403208 <_ZN3BtcC1ERNSt7__cxx1112basic_stringIcSt11char_traitsIcESaIcEEES6_+0x588>
  403208:	48 8b bd 88 f8 ff ff 	mov    -0x778(%rbp),%rdi
  40320f:	48 8b 75 e8          	mov    -0x18(%rbp),%rsi
  403213:	e8 88 ef ff ff       	call   4021a0 <_ZStlsIcSt11char_traitsIcESaIcEERSt13basic_ostreamIT_T0_ES7_RKNSt7__cxx1112basic_stringIS4_S5_T1_EE@plt>
  403218:	48 89 c1             	mov    %rax,%rcx
  40321b:	48 89 8d 80 f8 ff ff 	mov    %rcx,-0x780(%rbp)
  403222:	e9 00 00 00 00       	jmp    403227 <_ZN3BtcC1ERNSt7__cxx1112basic_stringIcSt11char_traitsIcESaIcEEES6_+0x5a7>
  403227:	48 8b bd 80 f8 ff ff 	mov    -0x780(%rbp),%rdi
  40322e:	be 28 60 40 00       	mov    $0x406028,%esi
  403233:	e8 88 ef ff ff       	call   4021c0 <_ZStlsISt11char_traitsIcEERSt13basic_ostreamIcT_ES5_PKc@plt>
  403238:	48 89 c1             	mov    %rax,%rcx
  40323b:	48 89 8d 78 f8 ff ff 	mov    %rcx,-0x788(%rbp)
  403242:	e9 00 00 00 00       	jmp    403247 <_ZN3BtcC1ERNSt7__cxx1112basic_stringIcSt11char_traitsIcESaIcEEES6_+0x5c7>
  403247:	48 8b bd 78 f8 ff ff 	mov    -0x788(%rbp),%rdi
  40324e:	be 00 21 40 00       	mov    $0x402100,%esi
  403253:	e8 b8 ef ff ff       	call   402210 <_ZNSolsEPFRSoS_E@plt>
  403258:	e9 00 00 00 00       	jmp    40325d <_ZN3BtcC1ERNSt7__cxx1112basic_stringIcSt11char_traitsIcESaIcEEES6_+0x5dd>
  40325d:	c7 85 cc fd ff ff 01 	movl   $0x1,-0x234(%rbp)
  403264:	00 00 00 
  403267:	e9 4a 01 00 00       	jmp    4033b6 <_ZN3BtcC1ERNSt7__cxx1112basic_stringIcSt11char_traitsIcESaIcEEES6_+0x736>
  40326c:	48 89 c1             	mov    %rax,%rcx
  40326f:	89 d0                	mov    %edx,%eax
  403271:	48 89 4d e0          	mov    %rcx,-0x20(%rbp)
  403275:	89 45 dc             	mov    %eax,-0x24(%rbp)
  403278:	e9 7f 01 00 00       	jmp    4033fc <_ZN3BtcC1ERNSt7__cxx1112basic_stringIcSt11char_traitsIcESaIcEEES6_+0x77c>
  40327d:	48 8d bd 28 f9 ff ff 	lea    -0x6d8(%rbp),%rdi
  403284:	e8 f7 ef ff ff       	call   402280 <_ZNSt7__cxx1112basic_stringIcSt11char_traitsIcESaIcEEC1Ev@plt>
  403289:	e9 00 00 00 00       	jmp    40328e <_ZN3BtcC1ERNSt7__cxx1112basic_stringIcSt11char_traitsIcESaIcEEES6_+0x60e>
  40328e:	e9 00 00 00 00       	jmp    403293 <_ZN3BtcC1ERNSt7__cxx1112basic_stringIcSt11char_traitsIcESaIcEEES6_+0x613>
  403293:	48 8d bd 48 f9 ff ff 	lea    -0x6b8(%rbp),%rdi
  40329a:	48 8d b5 28 f9 ff ff 	lea    -0x6d8(%rbp),%rsi
  4032a1:	e8 ba ed ff ff       	call   402060 <_ZSt7getlineIcSt11char_traitsIcESaIcEERSt13basic_istreamIT_T0_ES7_RNSt7__cxx1112basic_stringIS4_S5_T1_EE@plt>
  4032a6:	48 89 c1             	mov    %rax,%rcx
  4032a9:	48 89 8d 70 f8 ff ff 	mov    %rcx,-0x790(%rbp)
  4032b0:	e9 00 00 00 00       	jmp    4032b5 <_ZN3BtcC1ERNSt7__cxx1112basic_stringIcSt11char_traitsIcESaIcEEES6_+0x635>
  4032b5:	48 8b bd 70 f8 ff ff 	mov    -0x790(%rbp),%rdi
  4032bc:	48 8b 07             	mov    (%rdi),%rax
  4032bf:	48 8b 40 e8          	mov    -0x18(%rax),%rax
  4032c3:	48 01 c7             	add    %rax,%rdi
  4032c6:	e8 f5 ef ff ff       	call   4022c0 <_ZNKSt9basic_iosIcSt11char_traitsIcEEcvPvEv@plt>
  4032cb:	48 89 c1             	mov    %rax,%rcx
  4032ce:	48 89 8d 68 f8 ff ff 	mov    %rcx,-0x798(%rbp)
  4032d5:	e9 00 00 00 00       	jmp    4032da <_ZN3BtcC1ERNSt7__cxx1112basic_stringIcSt11char_traitsIcESaIcEEES6_+0x65a>
  4032da:	48 8b 85 68 f8 ff ff 	mov    -0x798(%rbp),%rax
  4032e1:	48 83 f8 00          	cmp    $0x0,%rax
  4032e5:	0f 84 9f 00 00 00    	je     40338a <_ZN3BtcC1ERNSt7__cxx1112basic_stringIcSt11char_traitsIcESaIcEEES6_+0x70a>
  4032eb:	48 8d bd 28 f9 ff ff 	lea    -0x6d8(%rbp),%rdi
  4032f2:	e8 19 f0 ff ff       	call   402310 <_ZNKSt7__cxx1112basic_stringIcSt11char_traitsIcESaIcEE5emptyEv@plt>
  4032f7:	88 c1                	mov    %al,%cl
  4032f9:	88 8d 67 f8 ff ff    	mov    %cl,-0x799(%rbp)
  4032ff:	e9 00 00 00 00       	jmp    403304 <_ZN3BtcC1ERNSt7__cxx1112basic_stringIcSt11char_traitsIcESaIcEEES6_+0x684>
  403304:	8a 85 67 f8 ff ff    	mov    -0x799(%rbp),%al
  40330a:	a8 01                	test   $0x1,%al
  40330c:	0f 85 38 00 00 00    	jne    40334a <_ZN3BtcC1ERNSt7__cxx1112basic_stringIcSt11char_traitsIcESaIcEEES6_+0x6ca>
  403312:	e9 00 00 00 00       	jmp    403317 <_ZN3BtcC1ERNSt7__cxx1112basic_stringIcSt11char_traitsIcESaIcEEES6_+0x697>
  403317:	48 8b bd 10 f9 ff ff 	mov    -0x6f0(%rbp),%rdi
  40331e:	48 8d b5 28 f9 ff ff 	lea    -0x6d8(%rbp),%rsi
  403325:	e8 56 01 00 00       	call   403480 <_ZN3Btc11isEmptyLineERKNSt7__cxx1112basic_stringIcSt11char_traitsIcESaIcEEE>
  40332a:	88 c1                	mov    %al,%cl
  40332c:	88 8d 66 f8 ff ff    	mov    %cl,-0x79a(%rbp)
  403332:	e9 00 00 00 00       	jmp    403337 <_ZN3BtcC1ERNSt7__cxx1112basic_stringIcSt11char_traitsIcESaIcEEES6_+0x6b7>
  403337:	8a 85 66 f8 ff ff    	mov    -0x79a(%rbp),%al
  40333d:	a8 01                	test   $0x1,%al
  40333f:	0f 85 05 00 00 00    	jne    40334a <_ZN3BtcC1ERNSt7__cxx1112basic_stringIcSt11char_traitsIcESaIcEEES6_+0x6ca>
  403345:	e9 23 00 00 00       	jmp    40336d <_ZN3BtcC1ERNSt7__cxx1112basic_stringIcSt11char_traitsIcESaIcEEES6_+0x6ed>
  40334a:	e9 44 ff ff ff       	jmp    403293 <_ZN3BtcC1ERNSt7__cxx1112basic_stringIcSt11char_traitsIcESaIcEEES6_+0x613>
  40334f:	48 89 d1             	mov    %rdx,%rcx
  403352:	48 89 c6             	mov    %rax,%rsi
  403355:	48 89 75 e0          	mov    %rsi,-0x20(%rbp)
  403359:	89 4d dc             	mov    %ecx,-0x24(%rbp)
  40335c:	48 8d bd 28 f9 ff ff 	lea    -0x6d8(%rbp),%rdi
  403363:	e8 b8 ed ff ff       	call   402120 <_ZNSt7__cxx1112basic_stringIcSt11char_traitsIcESaIcEED1Ev@plt>
  403368:	e9 8a 00 00 00       	jmp    4033f7 <_ZN3BtcC1ERNSt7__cxx1112basic_stringIcSt11char_traitsIcESaIcEEES6_+0x777>
  40336d:	48 8b bd 10 f9 ff ff 	mov    -0x6f0(%rbp),%rdi
  403374:	48 8d b5 28 f9 ff ff 	lea    -0x6d8(%rbp),%rsi
  40337b:	e8 90 01 00 00       	call   403510 <_ZN3Btc10parseInputERNSt7__cxx1112basic_stringIcSt11char_traitsIcESaIcEEE>
  403380:	e9 00 00 00 00       	jmp    403385 <_ZN3BtcC1ERNSt7__cxx1112basic_stringIcSt11char_traitsIcESaIcEEES6_+0x705>
  403385:	e9 09 ff ff ff       	jmp    403293 <_ZN3BtcC1ERNSt7__cxx1112basic_stringIcSt11char_traitsIcESaIcEEES6_+0x613>
  40338a:	48 8d bd 48 f9 ff ff 	lea    -0x6b8(%rbp),%rdi
  403391:	e8 ea ec ff ff       	call   402080 <_ZNSt14basic_ifstreamIcSt11char_traitsIcEE5closeEv@plt>
  403396:	e9 00 00 00 00       	jmp    40339b <_ZN3BtcC1ERNSt7__cxx1112basic_stringIcSt11char_traitsIcESaIcEEES6_+0x71b>
  40339b:	48 8d bd 28 f9 ff ff 	lea    -0x6d8(%rbp),%rdi
  4033a2:	e8 79 ed ff ff       	call   402120 <_ZNSt7__cxx1112basic_stringIcSt11char_traitsIcESaIcEED1Ev@plt>
  4033a7:	e9 00 00 00 00       	jmp    4033ac <_ZN3BtcC1ERNSt7__cxx1112basic_stringIcSt11char_traitsIcESaIcEEES6_+0x72c>
  4033ac:	c7 85 cc fd ff ff 00 	movl   $0x0,-0x234(%rbp)
  4033b3:	00 00 00 
  4033b6:	48 8d bd 48 f9 ff ff 	lea    -0x6b8(%rbp),%rdi
  4033bd:	e8 ce ec ff ff       	call   402090 <_ZNSt14basic_ifstreamIcSt11char_traitsIcEED1Ev@plt>
  4033c2:	e9 00 00 00 00       	jmp    4033c7 <_ZN3BtcC1ERNSt7__cxx1112basic_stringIcSt11char_traitsIcESaIcEEES6_+0x747>
  4033c7:	48 8d bd a8 fd ff ff 	lea    -0x258(%rbp),%rdi
  4033ce:	e8 4d ed ff ff       	call   402120 <_ZNSt7__cxx1112basic_stringIcSt11char_traitsIcESaIcEED1Ev@plt>
  4033d3:	e9 00 00 00 00       	jmp    4033d8 <_ZN3BtcC1ERNSt7__cxx1112basic_stringIcSt11char_traitsIcESaIcEEES6_+0x758>
  4033d8:	e9 00 00 00 00       	jmp    4033dd <_ZN3BtcC1ERNSt7__cxx1112basic_stringIcSt11char_traitsIcESaIcEEES6_+0x75d>
  4033dd:	48 8d bd d0 fd ff ff 	lea    -0x230(%rbp),%rdi
  4033e4:	e8 a7 ec ff ff       	call   402090 <_ZNSt14basic_ifstreamIcSt11char_traitsIcEED1Ev@plt>
  4033e9:	e9 00 00 00 00       	jmp    4033ee <_ZN3BtcC1ERNSt7__cxx1112basic_stringIcSt11char_traitsIcESaIcEEES6_+0x76e>
  4033ee:	48 81 c4 a0 07 00 00 	add    $0x7a0,%rsp
  4033f5:	5d                   	pop    %rbp
  4033f6:	c3                   	ret    
  4033f7:	e9 00 00 00 00       	jmp    4033fc <_ZN3BtcC1ERNSt7__cxx1112basic_stringIcSt11char_traitsIcESaIcEEES6_+0x77c>
  4033fc:	48 8d bd 48 f9 ff ff 	lea    -0x6b8(%rbp),%rdi
  403403:	e8 88 ec ff ff       	call   402090 <_ZNSt14basic_ifstreamIcSt11char_traitsIcEED1Ev@plt>
  403408:	e9 00 00 00 00       	jmp    40340d <_ZN3BtcC1ERNSt7__cxx1112basic_stringIcSt11char_traitsIcESaIcEEES6_+0x78d>
  40340d:	e9 00 00 00 00       	jmp    403412 <_ZN3BtcC1ERNSt7__cxx1112basic_stringIcSt11char_traitsIcESaIcEEES6_+0x792>
  403412:	48 8d bd a8 fd ff ff 	lea    -0x258(%rbp),%rdi
  403419:	e8 02 ed ff ff       	call   402120 <_ZNSt7__cxx1112basic_stringIcSt11char_traitsIcESaIcEED1Ev@plt>
  40341e:	e9 00 00 00 00       	jmp    403423 <_ZN3BtcC1ERNSt7__cxx1112basic_stringIcSt11char_traitsIcESaIcEEES6_+0x7a3>
  403423:	e9 00 00 00 00       	jmp    403428 <_ZN3BtcC1ERNSt7__cxx1112basic_stringIcSt11char_traitsIcESaIcEEES6_+0x7a8>
  403428:	48 8d bd d0 fd ff ff 	lea    -0x230(%rbp),%rdi
  40342f:	e8 5c ec ff ff       	call   402090 <_ZNSt14basic_ifstreamIcSt11char_traitsIcEED1Ev@plt>
  403434:	e9 00 00 00 00       	jmp    403439 <_ZN3BtcC1ERNSt7__cxx1112basic_stringIcSt11char_traitsIcESaIcEEES6_+0x7b9>
  403439:	e9 00 00 00 00       	jmp    40343e <_ZN3BtcC1ERNSt7__cxx1112basic_stringIcSt11char_traitsIcESaIcEEES6_+0x7be>
  40343e:	48 8b bd 20 f9 ff ff 	mov    -0x6e0(%rbp),%rdi
  403445:	e8 d6 ec ff ff       	call   402120 <_ZNSt7__cxx1112basic_stringIcSt11char_traitsIcESaIcEED1Ev@plt>
  40344a:	e9 00 00 00 00       	jmp    40344f <_ZN3BtcC1ERNSt7__cxx1112basic_stringIcSt11char_traitsIcESaIcEEES6_+0x7cf>
  40344f:	e9 00 00 00 00       	jmp    403454 <_ZN3BtcC1ERNSt7__cxx1112basic_stringIcSt11char_traitsIcESaIcEEES6_+0x7d4>
  403454:	48 8b bd 18 f9 ff ff 	mov    -0x6e8(%rbp),%rdi
  40345b:	e8 a0 0f 00 00       	call   404400 <_ZNSt3mapINSt7__cxx1112basic_stringIcSt11char_traitsIcESaIcEEEfSt4lessIS5_ESaISt4pairIKS5_fEEED2Ev>
  403460:	e9 00 00 00 00       	jmp    403465 <_ZN3BtcC1ERNSt7__cxx1112basic_stringIcSt11char_traitsIcESaIcEEES6_+0x7e5>
  403465:	e9 00 00 00 00       	jmp    40346a <_ZN3BtcC1ERNSt7__cxx1112basic_stringIcSt11char_traitsIcESaIcEEES6_+0x7ea>
  40346a:	48 8b 7d e0          	mov    -0x20(%rbp),%rdi
  40346e:	e8 ad ee ff ff       	call   402320 <_Unwind_Resume@plt>
  403473:	48 89 c7             	mov    %rax,%rdi
  403476:	e8 95 f2 ff ff       	call   402710 <__clang_call_terminate>
  40347b:	0f 1f 44 00 00       	nopl   0x0(%rax,%rax,1)

0000000000403480 <_ZN3Btc11isEmptyLineERKNSt7__cxx1112basic_stringIcSt11char_traitsIcESaIcEEE>:
  403480:	55                   	push   %rbp
  403481:	48 89 e5             	mov    %rsp,%rbp
  403484:	48 83 ec 30          	sub    $0x30,%rsp
  403488:	48 89 7d f0          	mov    %rdi,-0x10(%rbp)
  40348c:	48 89 75 e8          	mov    %rsi,-0x18(%rbp)
  403490:	48 c7 45 e0 00 00 00 	movq   $0x0,-0x20(%rbp)
  403497:	00 
  403498:	48 8b 45 e0          	mov    -0x20(%rbp),%rax
  40349c:	48 89 45 d8          	mov    %rax,-0x28(%rbp)
  4034a0:	48 8b 7d e8          	mov    -0x18(%rbp),%rdi
  4034a4:	e8 f7 ed ff ff       	call   4022a0 <_ZNKSt7__cxx1112basic_stringIcSt11char_traitsIcESaIcEE6lengthEv@plt>
  4034a9:	48 89 c1             	mov    %rax,%rcx
  4034ac:	48 8b 45 d8          	mov    -0x28(%rbp),%rax
  4034b0:	48 39 c8             	cmp    %rcx,%rax
  4034b3:	0f 83 3d 00 00 00    	jae    4034f6 <_ZN3Btc11isEmptyLineERKNSt7__cxx1112basic_stringIcSt11char_traitsIcESaIcEEE+0x76>
  4034b9:	48 8b 7d e8          	mov    -0x18(%rbp),%rdi
  4034bd:	48 8b 75 e0          	mov    -0x20(%rbp),%rsi
  4034c1:	e8 6a ed ff ff       	call   402230 <_ZNKSt7__cxx1112basic_stringIcSt11char_traitsIcESaIcEEixEm@plt>
  4034c6:	0f be 38             	movsbl (%rax),%edi
  4034c9:	e8 72 eb ff ff       	call   402040 <isspace@plt>
  4034ce:	83 f8 00             	cmp    $0x0,%eax
  4034d1:	0f 85 09 00 00 00    	jne    4034e0 <_ZN3Btc11isEmptyLineERKNSt7__cxx1112basic_stringIcSt11char_traitsIcESaIcEEE+0x60>
  4034d7:	c6 45 ff 00          	movb   $0x0,-0x1(%rbp)
  4034db:	e9 1a 00 00 00       	jmp    4034fa <_ZN3Btc11isEmptyLineERKNSt7__cxx1112basic_stringIcSt11char_traitsIcESaIcEEE+0x7a>
  4034e0:	e9 00 00 00 00       	jmp    4034e5 <_ZN3Btc11isEmptyLineERKNSt7__cxx1112basic_stringIcSt11char_traitsIcESaIcEEE+0x65>
  4034e5:	48 8b 45 e0          	mov    -0x20(%rbp),%rax
  4034e9:	48 83 c0 01          	add    $0x1,%rax
  4034ed:	48 89 45 e0          	mov    %rax,-0x20(%rbp)
  4034f1:	e9 a2 ff ff ff       	jmp    403498 <_ZN3Btc11isEmptyLineERKNSt7__cxx1112basic_stringIcSt11char_traitsIcESaIcEEE+0x18>
  4034f6:	c6 45 ff 01          	movb   $0x1,-0x1(%rbp)
  4034fa:	8a 45 ff             	mov    -0x1(%rbp),%al
  4034fd:	24 01                	and    $0x1,%al
  4034ff:	0f b6 c0             	movzbl %al,%eax
  403502:	48 83 c4 30          	add    $0x30,%rsp
  403506:	5d                   	pop    %rbp
  403507:	c3                   	ret    
  403508:	0f 1f 84 00 00 00 00 	nopl   0x0(%rax,%rax,1)
  40350f:	00 

0000000000403510 <_ZN3Btc10parseInputERNSt7__cxx1112basic_stringIcSt11char_traitsIcESaIcEEE>:
  403510:	55                   	push   %rbp
  403511:	48 89 e5             	mov    %rsp,%rbp
  403514:	48 81 ec 20 01 00 00 	sub    $0x120,%rsp
  40351b:	48 89 7d f8          	mov    %rdi,-0x8(%rbp)
  40351f:	48 89 75 f0          	mov    %rsi,-0x10(%rbp)
  403523:	48 8b 4d f8          	mov    -0x8(%rbp),%rcx
  403527:	48 89 8d 60 ff ff ff 	mov    %rcx,-0xa0(%rbp)
  40352e:	48 8b 75 f0          	mov    -0x10(%rbp),%rsi
  403532:	48 8d 7d d0          	lea    -0x30(%rbp),%rdi
  403536:	48 89 bd 68 ff ff ff 	mov    %rdi,-0x98(%rbp)
  40353d:	e8 4e f0 ff ff       	call   402590 <_Z4trimRKNSt7__cxx1112basic_stringIcSt11char_traitsIcESaIcEEE>
  403542:	48 8b bd 68 ff ff ff 	mov    -0x98(%rbp),%rdi
  403549:	be 77 60 40 00       	mov    $0x406077,%esi
  40354e:	e8 fd 0e 00 00       	call   404450 <_ZSteqIcSt11char_traitsIcESaIcEEbRKNSt7__cxx1112basic_stringIT_T0_T1_EEPKS5_>
  403553:	88 c1                	mov    %al,%cl
  403555:	88 8d 73 ff ff ff    	mov    %cl,-0x8d(%rbp)
  40355b:	e9 00 00 00 00       	jmp    403560 <_ZN3Btc10parseInputERNSt7__cxx1112basic_stringIcSt11char_traitsIcESaIcEEE+0x50>
  403560:	8a 85 73 ff ff ff    	mov    -0x8d(%rbp),%al
  403566:	a8 01                	test   $0x1,%al
  403568:	0f 85 05 00 00 00    	jne    403573 <_ZN3Btc10parseInputERNSt7__cxx1112basic_stringIcSt11char_traitsIcESaIcEEE+0x63>
  40356e:	e9 1d 00 00 00       	jmp    403590 <_ZN3Btc10parseInputERNSt7__cxx1112basic_stringIcSt11char_traitsIcESaIcEEE+0x80>
  403573:	c7 45 c0 01 00 00 00 	movl   $0x1,-0x40(%rbp)
  40357a:	e9 4b 03 00 00       	jmp    4038ca <_ZN3Btc10parseInputERNSt7__cxx1112basic_stringIcSt11char_traitsIcESaIcEEE+0x3ba>
  40357f:	48 89 c1             	mov    %rax,%rcx
  403582:	89 d0                	mov    %edx,%eax
  403584:	48 89 4d c8          	mov    %rcx,-0x38(%rbp)
  403588:	89 45 c4             	mov    %eax,-0x3c(%rbp)
  40358b:	e9 64 03 00 00       	jmp    4038f4 <_ZN3Btc10parseInputERNSt7__cxx1112basic_stringIcSt11char_traitsIcESaIcEEE+0x3e4>
  403590:	be 82 60 40 00       	mov    $0x406082,%esi
  403595:	31 c0                	xor    %eax,%eax
  403597:	89 c2                	mov    %eax,%edx
  403599:	48 8d 7d d0          	lea    -0x30(%rbp),%rdi
  40359d:	e8 ae ed ff ff       	call   402350 <_ZNKSt7__cxx1112basic_stringIcSt11char_traitsIcESaIcEE4findEPKcm@plt>
  4035a2:	48 89 c1             	mov    %rax,%rcx
  4035a5:	48 89 8d 58 ff ff ff 	mov    %rcx,-0xa8(%rbp)
  4035ac:	e9 00 00 00 00       	jmp    4035b1 <_ZN3Btc10parseInputERNSt7__cxx1112basic_stringIcSt11char_traitsIcESaIcEEE+0xa1>
  4035b1:	48 8b 8d 58 ff ff ff 	mov    -0xa8(%rbp),%rcx
  4035b8:	48 89 4d b8          	mov    %rcx,-0x48(%rbp)
  4035bc:	48 8b 4d b8          	mov    -0x48(%rbp),%rcx
  4035c0:	31 d2                	xor    %edx,%edx
  4035c2:	48 8d 7d 98          	lea    -0x68(%rbp),%rdi
  4035c6:	48 8d 75 d0          	lea    -0x30(%rbp),%rsi
  4035ca:	e8 21 ec ff ff       	call   4021f0 <_ZNKSt7__cxx1112basic_stringIcSt11char_traitsIcESaIcEE6substrEmm@plt>
  4035cf:	e9 00 00 00 00       	jmp    4035d4 <_ZN3Btc10parseInputERNSt7__cxx1112basic_stringIcSt11char_traitsIcESaIcEEE+0xc4>
  4035d4:	48 8b bd 60 ff ff ff 	mov    -0xa0(%rbp),%rdi
  4035db:	48 8d 75 98          	lea    -0x68(%rbp),%rsi
  4035df:	e8 ac 04 00 00       	call   403a90 <_ZN3Btc9validDateERKNSt7__cxx1112basic_stringIcSt11char_traitsIcESaIcEEE>
  4035e4:	88 c1                	mov    %al,%cl
  4035e6:	88 8d 57 ff ff ff    	mov    %cl,-0xa9(%rbp)
  4035ec:	e9 00 00 00 00       	jmp    4035f1 <_ZN3Btc10parseInputERNSt7__cxx1112basic_stringIcSt11char_traitsIcESaIcEEE+0xe1>
  4035f1:	8a 85 57 ff ff ff    	mov    -0xa9(%rbp),%al
  4035f7:	a8 01                	test   $0x1,%al
  4035f9:	0f 85 b5 00 00 00    	jne    4036b4 <_ZN3Btc10parseInputERNSt7__cxx1112basic_stringIcSt11char_traitsIcESaIcEEE+0x1a4>
  4035ff:	e9 00 00 00 00       	jmp    403604 <_ZN3Btc10parseInputERNSt7__cxx1112basic_stringIcSt11char_traitsIcESaIcEEE+0xf4>
  403604:	bf 00 92 40 00       	mov    $0x409200,%edi
  403609:	be 38 60 40 00       	mov    $0x406038,%esi
  40360e:	e8 ad eb ff ff       	call   4021c0 <_ZStlsISt11char_traitsIcEERSt13basic_ostreamIcT_ES5_PKc@plt>
  403613:	48 89 c1             	mov    %rax,%rcx
  403616:	48 89 8d 48 ff ff ff 	mov    %rcx,-0xb8(%rbp)
  40361d:	e9 00 00 00 00       	jmp    403622 <_ZN3Btc10parseInputERNSt7__cxx1112basic_stringIcSt11char_traitsIcESaIcEEE+0x112>
  403622:	48 8b bd 48 ff ff ff 	mov    -0xb8(%rbp),%rdi
  403629:	be 84 60 40 00       	mov    $0x406084,%esi
  40362e:	e8 8d eb ff ff       	call   4021c0 <_ZStlsISt11char_traitsIcEERSt13basic_ostreamIcT_ES5_PKc@plt>
  403633:	48 89 c1             	mov    %rax,%rcx
  403636:	48 89 8d 40 ff ff ff 	mov    %rcx,-0xc0(%rbp)
  40363d:	e9 00 00 00 00       	jmp    403642 <_ZN3Btc10parseInputERNSt7__cxx1112basic_stringIcSt11char_traitsIcESaIcEEE+0x132>
  403642:	48 8b bd 40 ff ff ff 	mov    -0xc0(%rbp),%rdi
  403649:	48 8d 75 98          	lea    -0x68(%rbp),%rsi
  40364d:	e8 4e eb ff ff       	call   4021a0 <_ZStlsIcSt11char_traitsIcESaIcEERSt13basic_ostreamIT_T0_ES7_RKNSt7__cxx1112basic_stringIS4_S5_T1_EE@plt>
  403652:	48 89 c1             	mov    %rax,%rcx
  403655:	48 89 8d 38 ff ff ff 	mov    %rcx,-0xc8(%rbp)
  40365c:	e9 00 00 00 00       	jmp    403661 <_ZN3Btc10parseInputERNSt7__cxx1112basic_stringIcSt11char_traitsIcESaIcEEE+0x151>
  403661:	48 8b bd 38 ff ff ff 	mov    -0xc8(%rbp),%rdi
  403668:	be 28 60 40 00       	mov    $0x406028,%esi
  40366d:	e8 4e eb ff ff       	call   4021c0 <_ZStlsISt11char_traitsIcEERSt13basic_ostreamIcT_ES5_PKc@plt>
  403672:	48 89 c1             	mov    %rax,%rcx
  403675:	48 89 8d 30 ff ff ff 	mov    %rcx,-0xd0(%rbp)
  40367c:	e9 00 00 00 00       	jmp    403681 <_ZN3Btc10parseInputERNSt7__cxx1112basic_stringIcSt11char_traitsIcESaIcEEE+0x171>
  403681:	48 8b bd 30 ff ff ff 	mov    -0xd0(%rbp),%rdi
  403688:	be 00 21 40 00       	mov    $0x402100,%esi
  40368d:	e8 7e eb ff ff       	call   402210 <_ZNSolsEPFRSoS_E@plt>
  403692:	e9 00 00 00 00       	jmp    403697 <_ZN3Btc10parseInputERNSt7__cxx1112basic_stringIcSt11char_traitsIcESaIcEEE+0x187>
  403697:	c7 45 c0 01 00 00 00 	movl   $0x1,-0x40(%rbp)
  40369e:	e9 14 02 00 00       	jmp    4038b7 <_ZN3Btc10parseInputERNSt7__cxx1112basic_stringIcSt11char_traitsIcESaIcEEE+0x3a7>
  4036a3:	48 89 c1             	mov    %rax,%rcx
  4036a6:	89 d0                	mov    %edx,%eax
  4036a8:	48 89 4d c8          	mov    %rcx,-0x38(%rbp)
  4036ac:	89 45 c4             	mov    %eax,-0x3c(%rbp)
  4036af:	e9 2d 02 00 00       	jmp    4038e1 <_ZN3Btc10parseInputERNSt7__cxx1112basic_stringIcSt11char_traitsIcESaIcEEE+0x3d1>
  4036b4:	48 8b 55 b8          	mov    -0x48(%rbp),%rdx
  4036b8:	48 83 c2 01          	add    $0x1,%rdx
  4036bc:	48 8d bd 78 ff ff ff 	lea    -0x88(%rbp),%rdi
  4036c3:	48 8d 75 d0          	lea    -0x30(%rbp),%rsi
  4036c7:	48 c7 c1 ff ff ff ff 	mov    $0xffffffffffffffff,%rcx
  4036ce:	e8 1d eb ff ff       	call   4021f0 <_ZNKSt7__cxx1112basic_stringIcSt11char_traitsIcESaIcEE6substrEmm@plt>
  4036d3:	e9 00 00 00 00       	jmp    4036d8 <_ZN3Btc10parseInputERNSt7__cxx1112basic_stringIcSt11char_traitsIcESaIcEEE+0x1c8>
  4036d8:	48 8b bd 60 ff ff ff 	mov    -0xa0(%rbp),%rdi
  4036df:	48 8d b5 78 ff ff ff 	lea    -0x88(%rbp),%rsi
  4036e6:	e8 45 07 00 00       	call   403e30 <_ZN3Btc10validValueERKNSt7__cxx1112basic_stringIcSt11char_traitsIcESaIcEEE>
  4036eb:	88 c1                	mov    %al,%cl
  4036ed:	88 8d 2f ff ff ff    	mov    %cl,-0xd1(%rbp)
  4036f3:	e9 00 00 00 00       	jmp    4036f8 <_ZN3Btc10parseInputERNSt7__cxx1112basic_stringIcSt11char_traitsIcESaIcEEE+0x1e8>
  4036f8:	8a 85 2f ff ff ff    	mov    -0xd1(%rbp),%al
  4036fe:	a8 01                	test   $0x1,%al
  403700:	0f 85 2f 00 00 00    	jne    403735 <_ZN3Btc10parseInputERNSt7__cxx1112basic_stringIcSt11char_traitsIcESaIcEEE+0x225>
  403706:	e9 00 00 00 00       	jmp    40370b <_ZN3Btc10parseInputERNSt7__cxx1112basic_stringIcSt11char_traitsIcESaIcEEE+0x1fb>
  40370b:	c7 45 c0 01 00 00 00 	movl   $0x1,-0x40(%rbp)
  403712:	e9 8a 01 00 00       	jmp    4038a1 <_ZN3Btc10parseInputERNSt7__cxx1112basic_stringIcSt11char_traitsIcESaIcEEE+0x391>
  403717:	48 89 d1             	mov    %rdx,%rcx
  40371a:	48 89 c6             	mov    %rax,%rsi
  40371d:	48 89 75 c8          	mov    %rsi,-0x38(%rbp)
  403721:	89 4d c4             	mov    %ecx,-0x3c(%rbp)
  403724:	48 8d bd 78 ff ff ff 	lea    -0x88(%rbp),%rdi
  40372b:	e8 f0 e9 ff ff       	call   402120 <_ZNSt7__cxx1112basic_stringIcSt11char_traitsIcESaIcEED1Ev@plt>
  403730:	e9 a7 01 00 00       	jmp    4038dc <_ZN3Btc10parseInputERNSt7__cxx1112basic_stringIcSt11char_traitsIcESaIcEEE+0x3cc>
  403735:	48 8d bd 78 ff ff ff 	lea    -0x88(%rbp),%rdi
  40373c:	e8 9f e9 ff ff       	call   4020e0 <_ZNKSt7__cxx1112basic_stringIcSt11char_traitsIcESaIcEE5c_strEv@plt>
  403741:	48 89 c1             	mov    %rax,%rcx
  403744:	48 89 8d 20 ff ff ff 	mov    %rcx,-0xe0(%rbp)
  40374b:	e9 00 00 00 00       	jmp    403750 <_ZN3Btc10parseInputERNSt7__cxx1112basic_stringIcSt11char_traitsIcESaIcEEE+0x240>
  403750:	48 8b bd 20 ff ff ff 	mov    -0xe0(%rbp),%rdi
  403757:	e8 f4 ea ff ff       	call   402250 <atof@plt>
  40375c:	f2 0f 5a c0          	cvtsd2ss %xmm0,%xmm0
  403760:	f3 0f 11 85 74 ff ff 	movss  %xmm0,-0x8c(%rbp)
  403767:	ff 
  403768:	bf 00 92 40 00       	mov    $0x409200,%edi
  40376d:	be 99 60 40 00       	mov    $0x406099,%esi
  403772:	e8 49 ea ff ff       	call   4021c0 <_ZStlsISt11char_traitsIcEERSt13basic_ostreamIcT_ES5_PKc@plt>
  403777:	48 89 c1             	mov    %rax,%rcx
  40377a:	48 89 8d 18 ff ff ff 	mov    %rcx,-0xe8(%rbp)
  403781:	e9 00 00 00 00       	jmp    403786 <_ZN3Btc10parseInputERNSt7__cxx1112basic_stringIcSt11char_traitsIcESaIcEEE+0x276>
  403786:	48 8b bd 18 ff ff ff 	mov    -0xe8(%rbp),%rdi
  40378d:	48 8d 75 98          	lea    -0x68(%rbp),%rsi
  403791:	e8 0a ea ff ff       	call   4021a0 <_ZStlsIcSt11char_traitsIcESaIcEERSt13basic_ostreamIT_T0_ES7_RKNSt7__cxx1112basic_stringIS4_S5_T1_EE@plt>
  403796:	48 89 c1             	mov    %rax,%rcx
  403799:	48 89 8d 10 ff ff ff 	mov    %rcx,-0xf0(%rbp)
  4037a0:	e9 00 00 00 00       	jmp    4037a5 <_ZN3Btc10parseInputERNSt7__cxx1112basic_stringIcSt11char_traitsIcESaIcEEE+0x295>
  4037a5:	48 8b bd 10 ff ff ff 	mov    -0xf0(%rbp),%rdi
  4037ac:	be 94 60 40 00       	mov    $0x406094,%esi
  4037b1:	e8 0a ea ff ff       	call   4021c0 <_ZStlsISt11char_traitsIcEERSt13basic_ostreamIcT_ES5_PKc@plt>
  4037b6:	48 89 c1             	mov    %rax,%rcx
  4037b9:	48 89 8d 08 ff ff ff 	mov    %rcx,-0xf8(%rbp)
  4037c0:	e9 00 00 00 00       	jmp    4037c5 <_ZN3Btc10parseInputERNSt7__cxx1112basic_stringIcSt11char_traitsIcESaIcEEE+0x2b5>
  4037c5:	48 8b bd 08 ff ff ff 	mov    -0xf8(%rbp),%rdi
  4037cc:	f3 0f 10 85 74 ff ff 	movss  -0x8c(%rbp),%xmm0
  4037d3:	ff 
  4037d4:	e8 67 e9 ff ff       	call   402140 <_ZNSolsEf@plt>
  4037d9:	48 89 c1             	mov    %rax,%rcx
  4037dc:	48 89 8d 00 ff ff ff 	mov    %rcx,-0x100(%rbp)
  4037e3:	e9 00 00 00 00       	jmp    4037e8 <_ZN3Btc10parseInputERNSt7__cxx1112basic_stringIcSt11char_traitsIcESaIcEEE+0x2d8>
  4037e8:	48 8b bd 00 ff ff ff 	mov    -0x100(%rbp),%rdi
  4037ef:	be 9f 60 40 00       	mov    $0x40609f,%esi
  4037f4:	e8 c7 e9 ff ff       	call   4021c0 <_ZStlsISt11char_traitsIcEERSt13basic_ostreamIcT_ES5_PKc@plt>
  4037f9:	48 89 c1             	mov    %rax,%rcx
  4037fc:	48 89 8d f8 fe ff ff 	mov    %rcx,-0x108(%rbp)
  403803:	e9 00 00 00 00       	jmp    403808 <_ZN3Btc10parseInputERNSt7__cxx1112basic_stringIcSt11char_traitsIcESaIcEEE+0x2f8>
  403808:	48 8b bd 60 ff ff ff 	mov    -0xa0(%rbp),%rdi
  40380f:	f3 0f 10 85 74 ff ff 	movss  -0x8c(%rbp),%xmm0
  403816:	ff 
  403817:	f3 0f 11 85 f0 fe ff 	movss  %xmm0,-0x110(%rbp)
  40381e:	ff 
  40381f:	48 8d 75 98          	lea    -0x68(%rbp),%rsi
  403823:	e8 b8 07 00 00       	call   403fe0 <_ZN3Btc15getBitcoinPriceERKNSt7__cxx1112basic_stringIcSt11char_traitsIcESaIcEEE>
  403828:	f3 0f 11 85 f4 fe ff 	movss  %xmm0,-0x10c(%rbp)
  40382f:	ff 
  403830:	e9 00 00 00 00       	jmp    403835 <_ZN3Btc10parseInputERNSt7__cxx1112basic_stringIcSt11char_traitsIcESaIcEEE+0x325>
  403835:	48 8b bd f8 fe ff ff 	mov    -0x108(%rbp),%rdi
  40383c:	f3 0f 10 8d f4 fe ff 	movss  -0x10c(%rbp),%xmm1
  403843:	ff 
  403844:	f3 0f 10 85 f0 fe ff 	movss  -0x110(%rbp),%xmm0
  40384b:	ff 
  40384c:	f3 0f 59 c1          	mulss  %xmm1,%xmm0
  403850:	e8 eb e8 ff ff       	call   402140 <_ZNSolsEf@plt>
  403855:	48 89 c1             	mov    %rax,%rcx
  403858:	48 89 8d e8 fe ff ff 	mov    %rcx,-0x118(%rbp)
  40385f:	e9 00 00 00 00       	jmp    403864 <_ZN3Btc10parseInputERNSt7__cxx1112basic_stringIcSt11char_traitsIcESaIcEEE+0x354>
  403864:	48 8b bd e8 fe ff ff 	mov    -0x118(%rbp),%rdi
  40386b:	be 28 60 40 00       	mov    $0x406028,%esi
  403870:	e8 4b e9 ff ff       	call   4021c0 <_ZStlsISt11char_traitsIcEERSt13basic_ostreamIcT_ES5_PKc@plt>
  403875:	48 89 c1             	mov    %rax,%rcx
  403878:	48 89 8d e0 fe ff ff 	mov    %rcx,-0x120(%rbp)
  40387f:	e9 00 00 00 00       	jmp    403884 <_ZN3Btc10parseInputERNSt7__cxx1112basic_stringIcSt11char_traitsIcESaIcEEE+0x374>
  403884:	48 8b bd e0 fe ff ff 	mov    -0x120(%rbp),%rdi
  40388b:	be 00 21 40 00       	mov    $0x402100,%esi
  403890:	e8 7b e9 ff ff       	call   402210 <_ZNSolsEPFRSoS_E@plt>
  403895:	e9 00 00 00 00       	jmp    40389a <_ZN3Btc10parseInputERNSt7__cxx1112basic_stringIcSt11char_traitsIcESaIcEEE+0x38a>
  40389a:	c7 45 c0 00 00 00 00 	movl   $0x0,-0x40(%rbp)
  4038a1:	48 8d bd 78 ff ff ff 	lea    -0x88(%rbp),%rdi
  4038a8:	e8 73 e8 ff ff       	call   402120 <_ZNSt7__cxx1112basic_stringIcSt11char_traitsIcESaIcEED1Ev@plt>
  4038ad:	e9 00 00 00 00       	jmp    4038b2 <_ZN3Btc10parseInputERNSt7__cxx1112basic_stringIcSt11char_traitsIcESaIcEEE+0x3a2>
  4038b2:	e9 00 00 00 00       	jmp    4038b7 <_ZN3Btc10parseInputERNSt7__cxx1112basic_stringIcSt11char_traitsIcESaIcEEE+0x3a7>
  4038b7:	48 8d 7d 98          	lea    -0x68(%rbp),%rdi
  4038bb:	e8 60 e8 ff ff       	call   402120 <_ZNSt7__cxx1112basic_stringIcSt11char_traitsIcESaIcEED1Ev@plt>
  4038c0:	e9 00 00 00 00       	jmp    4038c5 <_ZN3Btc10parseInputERNSt7__cxx1112basic_stringIcSt11char_traitsIcESaIcEEE+0x3b5>
  4038c5:	e9 00 00 00 00       	jmp    4038ca <_ZN3Btc10parseInputERNSt7__cxx1112basic_stringIcSt11char_traitsIcESaIcEEE+0x3ba>
  4038ca:	48 8d 7d d0          	lea    -0x30(%rbp),%rdi
  4038ce:	e8 4d e8 ff ff       	call   402120 <_ZNSt7__cxx1112basic_stringIcSt11char_traitsIcESaIcEED1Ev@plt>
  4038d3:	48 81 c4 20 01 00 00 	add    $0x120,%rsp
  4038da:	5d                   	pop    %rbp
  4038db:	c3                   	ret    
  4038dc:	e9 00 00 00 00       	jmp    4038e1 <_ZN3Btc10parseInputERNSt7__cxx1112basic_stringIcSt11char_traitsIcESaIcEEE+0x3d1>
  4038e1:	48 8d 7d 98          	lea    -0x68(%rbp),%rdi
  4038e5:	e8 36 e8 ff ff       	call   402120 <_ZNSt7__cxx1112basic_stringIcSt11char_traitsIcESaIcEED1Ev@plt>
  4038ea:	e9 00 00 00 00       	jmp    4038ef <_ZN3Btc10parseInputERNSt7__cxx1112basic_stringIcSt11char_traitsIcESaIcEEE+0x3df>
  4038ef:	e9 00 00 00 00       	jmp    4038f4 <_ZN3Btc10parseInputERNSt7__cxx1112basic_stringIcSt11char_traitsIcESaIcEEE+0x3e4>
  4038f4:	48 8d 7d d0          	lea    -0x30(%rbp),%rdi
  4038f8:	e8 23 e8 ff ff       	call   402120 <_ZNSt7__cxx1112basic_stringIcSt11char_traitsIcESaIcEED1Ev@plt>
  4038fd:	e9 00 00 00 00       	jmp    403902 <_ZN3Btc10parseInputERNSt7__cxx1112basic_stringIcSt11char_traitsIcESaIcEEE+0x3f2>
  403902:	e9 00 00 00 00       	jmp    403907 <_ZN3Btc10parseInputERNSt7__cxx1112basic_stringIcSt11char_traitsIcESaIcEEE+0x3f7>
  403907:	48 8b 7d c8          	mov    -0x38(%rbp),%rdi
  40390b:	e8 10 ea ff ff       	call   402320 <_Unwind_Resume@plt>
  403910:	48 89 c7             	mov    %rax,%rdi
  403913:	e8 f8 ed ff ff       	call   402710 <__clang_call_terminate>
  403918:	0f 1f 84 00 00 00 00 	nopl   0x0(%rax,%rax,1)
  40391f:	00 

0000000000403920 <_ZN3BtcC1ERKS_>:
  403920:	55                   	push   %rbp
  403921:	48 89 e5             	mov    %rsp,%rbp
  403924:	48 83 ec 40          	sub    $0x40,%rsp
  403928:	48 89 7d f8          	mov    %rdi,-0x8(%rbp)
  40392c:	48 89 75 f0          	mov    %rsi,-0x10(%rbp)
  403930:	48 8b 7d f8          	mov    -0x8(%rbp),%rdi
  403934:	48 89 7d d0          	mov    %rdi,-0x30(%rbp)
  403938:	48 89 f9             	mov    %rdi,%rcx
  40393b:	48 89 4d c8          	mov    %rcx,-0x38(%rbp)
  40393f:	e8 8c 09 00 00       	call   4042d0 <_ZNSt3mapINSt7__cxx1112basic_stringIcSt11char_traitsIcESaIcEEEfSt4lessIS5_ESaISt4pairIKS5_fEEEC2Ev>
  403944:	48 8b 7d d0          	mov    -0x30(%rbp),%rdi
  403948:	48 83 c7 30          	add    $0x30,%rdi
  40394c:	48 89 7d d8          	mov    %rdi,-0x28(%rbp)
  403950:	e8 2b e9 ff ff       	call   402280 <_ZNSt7__cxx1112basic_stringIcSt11char_traitsIcESaIcEEC1Ev@plt>
  403955:	e9 00 00 00 00       	jmp    40395a <_ZN3BtcC1ERKS_+0x3a>
  40395a:	48 8b 45 c8          	mov    -0x38(%rbp),%rax
  40395e:	48 3b 45 f0          	cmp    -0x10(%rbp),%rax
  403962:	0f 84 43 00 00 00    	je     4039ab <_ZN3BtcC1ERKS_+0x8b>
  403968:	48 8b 7d c8          	mov    -0x38(%rbp),%rdi
  40396c:	48 8b 75 f0          	mov    -0x10(%rbp),%rsi
  403970:	e8 ab 0a 00 00       	call   404420 <_ZNSt3mapINSt7__cxx1112basic_stringIcSt11char_traitsIcESaIcEEEfSt4lessIS5_ESaISt4pairIKS5_fEEEaSERKSC_>
  403975:	e9 00 00 00 00       	jmp    40397a <_ZN3BtcC1ERKS_+0x5a>
  40397a:	e9 2c 00 00 00       	jmp    4039ab <_ZN3BtcC1ERKS_+0x8b>
  40397f:	48 89 c1             	mov    %rax,%rcx
  403982:	89 d0                	mov    %edx,%eax
  403984:	48 89 4d e8          	mov    %rcx,-0x18(%rbp)
  403988:	89 45 e4             	mov    %eax,-0x1c(%rbp)
  40398b:	e9 26 00 00 00       	jmp    4039b6 <_ZN3BtcC1ERKS_+0x96>
  403990:	48 8b 7d d8          	mov    -0x28(%rbp),%rdi
  403994:	48 89 d1             	mov    %rdx,%rcx
  403997:	48 89 c6             	mov    %rax,%rsi
  40399a:	48 89 75 e8          	mov    %rsi,-0x18(%rbp)
  40399e:	89 4d e4             	mov    %ecx,-0x1c(%rbp)
  4039a1:	e8 7a e7 ff ff       	call   402120 <_ZNSt7__cxx1112basic_stringIcSt11char_traitsIcESaIcEED1Ev@plt>
  4039a6:	e9 06 00 00 00       	jmp    4039b1 <_ZN3BtcC1ERKS_+0x91>
  4039ab:	48 83 c4 40          	add    $0x40,%rsp
  4039af:	5d                   	pop    %rbp
  4039b0:	c3                   	ret    
  4039b1:	e9 00 00 00 00       	jmp    4039b6 <_ZN3BtcC1ERKS_+0x96>
  4039b6:	48 8b 7d d0          	mov    -0x30(%rbp),%rdi
  4039ba:	e8 41 0a 00 00       	call   404400 <_ZNSt3mapINSt7__cxx1112basic_stringIcSt11char_traitsIcESaIcEEEfSt4lessIS5_ESaISt4pairIKS5_fEEED2Ev>
  4039bf:	e9 00 00 00 00       	jmp    4039c4 <_ZN3BtcC1ERKS_+0xa4>
  4039c4:	e9 00 00 00 00       	jmp    4039c9 <_ZN3BtcC1ERKS_+0xa9>
  4039c9:	48 8b 7d e8          	mov    -0x18(%rbp),%rdi
  4039cd:	e8 4e e9 ff ff       	call   402320 <_Unwind_Resume@plt>
  4039d2:	48 89 c7             	mov    %rax,%rdi
  4039d5:	e8 36 ed ff ff       	call   402710 <__clang_call_terminate>
  4039da:	66 0f 1f 44 00 00    	nopw   0x0(%rax,%rax,1)

00000000004039e0 <_ZN3BtcaSERKS_>:
  4039e0:	55                   	push   %rbp
  4039e1:	48 89 e5             	mov    %rsp,%rbp
  4039e4:	48 83 ec 20          	sub    $0x20,%rsp
  4039e8:	48 89 7d f8          	mov    %rdi,-0x8(%rbp)
  4039ec:	48 89 75 f0          	mov    %rsi,-0x10(%rbp)
  4039f0:	48 8b 45 f8          	mov    -0x8(%rbp),%rax
  4039f4:	48 89 45 e8          	mov    %rax,-0x18(%rbp)
  4039f8:	48 3b 45 f0          	cmp    -0x10(%rbp),%rax
  4039fc:	0f 84 0d 00 00 00    	je     403a0f <_ZN3BtcaSERKS_+0x2f>
  403a02:	48 8b 7d e8          	mov    -0x18(%rbp),%rdi
  403a06:	48 8b 75 f0          	mov    -0x10(%rbp),%rsi
  403a0a:	e8 11 0a 00 00       	call   404420 <_ZNSt3mapINSt7__cxx1112basic_stringIcSt11char_traitsIcESaIcEEEfSt4lessIS5_ESaISt4pairIKS5_fEEEaSERKSC_>
  403a0f:	48 8b 45 e8          	mov    -0x18(%rbp),%rax
  403a13:	48 83 c4 20          	add    $0x20,%rsp
  403a17:	5d                   	pop    %rbp
  403a18:	c3                   	ret    
  403a19:	0f 1f 80 00 00 00 00 	nopl   0x0(%rax)

0000000000403a20 <_ZN3BtcD1Ev>:
  403a20:	55                   	push   %rbp
  403a21:	48 89 e5             	mov    %rsp,%rbp
  403a24:	48 83 ec 20          	sub    $0x20,%rsp
  403a28:	48 89 7d f8          	mov    %rdi,-0x8(%rbp)
  403a2c:	48 8b 7d f8          	mov    -0x8(%rbp),%rdi
  403a30:	48 89 7d e0          	mov    %rdi,-0x20(%rbp)
  403a34:	48 83 c7 30          	add    $0x30,%rdi
  403a38:	e8 e3 e6 ff ff       	call   402120 <_ZNSt7__cxx1112basic_stringIcSt11char_traitsIcESaIcEED1Ev@plt>
  403a3d:	e9 00 00 00 00       	jmp    403a42 <_ZN3BtcD1Ev+0x22>
  403a42:	48 8b 7d e0          	mov    -0x20(%rbp),%rdi
  403a46:	e8 b5 09 00 00       	call   404400 <_ZNSt3mapINSt7__cxx1112basic_stringIcSt11char_traitsIcESaIcEEEfSt4lessIS5_ESaISt4pairIKS5_fEEED2Ev>
  403a4b:	48 83 c4 20          	add    $0x20,%rsp
  403a4f:	5d                   	pop    %rbp
  403a50:	c3                   	ret    
  403a51:	48 8b 7d e0          	mov    -0x20(%rbp),%rdi
  403a55:	48 89 d1             	mov    %rdx,%rcx
  403a58:	48 89 c6             	mov    %rax,%rsi
  403a5b:	48 89 75 f0          	mov    %rsi,-0x10(%rbp)
  403a5f:	89 4d ec             	mov    %ecx,-0x14(%rbp)
  403a62:	e8 99 09 00 00       	call   404400 <_ZNSt3mapINSt7__cxx1112basic_stringIcSt11char_traitsIcESaIcEEEfSt4lessIS5_ESaISt4pairIKS5_fEEED2Ev>
  403a67:	e9 00 00 00 00       	jmp    403a6c <_ZN3BtcD1Ev+0x4c>
  403a6c:	e9 00 00 00 00       	jmp    403a71 <_ZN3BtcD1Ev+0x51>
  403a71:	48 8b 7d f0          	mov    -0x10(%rbp),%rdi
  403a75:	e8 a6 e8 ff ff       	call   402320 <_Unwind_Resume@plt>
  403a7a:	48 89 c7             	mov    %rax,%rdi
  403a7d:	e8 8e ec ff ff       	call   402710 <__clang_call_terminate>
  403a82:	66 2e 0f 1f 84 00 00 	cs nopw 0x0(%rax,%rax,1)
  403a89:	00 00 00 
  403a8c:	0f 1f 40 00          	nopl   0x0(%rax)

0000000000403a90 <_ZN3Btc9validDateERKNSt7__cxx1112basic_stringIcSt11char_traitsIcESaIcEEE>:
  403a90:	55                   	push   %rbp
  403a91:	48 89 e5             	mov    %rsp,%rbp
  403a94:	48 81 ec f0 00 00 00 	sub    $0xf0,%rsp
  403a9b:	48 89 7d f0          	mov    %rdi,-0x10(%rbp)
  403a9f:	48 89 75 e8          	mov    %rsi,-0x18(%rbp)
  403aa3:	48 8b 45 f0          	mov    -0x10(%rbp),%rax
  403aa7:	48 89 85 28 ff ff ff 	mov    %rax,-0xd8(%rbp)
  403aae:	48 8b 7d e8          	mov    -0x18(%rbp),%rdi
  403ab2:	e8 e9 e7 ff ff       	call   4022a0 <_ZNKSt7__cxx1112basic_stringIcSt11char_traitsIcESaIcEE6lengthEv@plt>
  403ab7:	48 83 f8 0a          	cmp    $0xa,%rax
  403abb:	0f 84 09 00 00 00    	je     403aca <_ZN3Btc9validDateERKNSt7__cxx1112basic_stringIcSt11char_traitsIcESaIcEEE+0x3a>
  403ac1:	c6 45 ff 00          	movb   $0x0,-0x1(%rbp)
  403ac5:	e9 40 03 00 00       	jmp    403e0a <_ZN3Btc9validDateERKNSt7__cxx1112basic_stringIcSt11char_traitsIcESaIcEEE+0x37a>
  403aca:	48 8b 7d e8          	mov    -0x18(%rbp),%rdi
  403ace:	be 04 00 00 00       	mov    $0x4,%esi
  403ad3:	e8 58 e7 ff ff       	call   402230 <_ZNKSt7__cxx1112basic_stringIcSt11char_traitsIcESaIcEEixEm@plt>
  403ad8:	0f be 00             	movsbl (%rax),%eax
  403adb:	83 f8 2d             	cmp    $0x2d,%eax
  403ade:	0f 85 1a 00 00 00    	jne    403afe <_ZN3Btc9validDateERKNSt7__cxx1112basic_stringIcSt11char_traitsIcESaIcEEE+0x6e>
  403ae4:	48 8b 7d e8          	mov    -0x18(%rbp),%rdi
  403ae8:	be 07 00 00 00       	mov    $0x7,%esi
  403aed:	e8 3e e7 ff ff       	call   402230 <_ZNKSt7__cxx1112basic_stringIcSt11char_traitsIcESaIcEEixEm@plt>
  403af2:	0f be 00             	movsbl (%rax),%eax
  403af5:	83 f8 2d             	cmp    $0x2d,%eax
  403af8:	0f 84 09 00 00 00    	je     403b07 <_ZN3Btc9validDateERKNSt7__cxx1112basic_stringIcSt11char_traitsIcESaIcEEE+0x77>
  403afe:	c6 45 ff 00          	movb   $0x0,-0x1(%rbp)
  403b02:	e9 03 03 00 00       	jmp    403e0a <_ZN3Btc9validDateERKNSt7__cxx1112basic_stringIcSt11char_traitsIcESaIcEEE+0x37a>
  403b07:	48 8b 75 e8          	mov    -0x18(%rbp),%rsi
  403b0b:	31 c9                	xor    %ecx,%ecx
  403b0d:	89 ca                	mov    %ecx,%edx
  403b0f:	48 8d 7d c8          	lea    -0x38(%rbp),%rdi
  403b13:	b9 04 00 00 00       	mov    $0x4,%ecx
  403b18:	e8 d3 e6 ff ff       	call   4021f0 <_ZNKSt7__cxx1112basic_stringIcSt11char_traitsIcESaIcEE6substrEmm@plt>
  403b1d:	48 8b 75 e8          	mov    -0x18(%rbp),%rsi
  403b21:	48 8d 7d a8          	lea    -0x58(%rbp),%rdi
  403b25:	ba 05 00 00 00       	mov    $0x5,%edx
  403b2a:	b9 02 00 00 00       	mov    $0x2,%ecx
  403b2f:	e8 bc e6 ff ff       	call   4021f0 <_ZNKSt7__cxx1112basic_stringIcSt11char_traitsIcESaIcEE6substrEmm@plt>
  403b34:	e9 00 00 00 00       	jmp    403b39 <_ZN3Btc9validDateERKNSt7__cxx1112basic_stringIcSt11char_traitsIcESaIcEEE+0xa9>
  403b39:	48 8b 75 e8          	mov    -0x18(%rbp),%rsi
  403b3d:	48 8d bd 78 ff ff ff 	lea    -0x88(%rbp),%rdi
  403b44:	ba 08 00 00 00       	mov    $0x8,%edx
  403b49:	b9 02 00 00 00       	mov    $0x2,%ecx
  403b4e:	e8 9d e6 ff ff       	call   4021f0 <_ZNKSt7__cxx1112basic_stringIcSt11char_traitsIcESaIcEE6substrEmm@plt>
  403b53:	e9 00 00 00 00       	jmp    403b58 <_ZN3Btc9validDateERKNSt7__cxx1112basic_stringIcSt11char_traitsIcESaIcEEE+0xc8>
  403b58:	48 8b bd 28 ff ff ff 	mov    -0xd8(%rbp),%rdi
  403b5f:	48 8d 75 c8          	lea    -0x38(%rbp),%rsi
  403b63:	e8 f8 04 00 00       	call   404060 <_ZN3Btc10isDigitStrERKNSt7__cxx1112basic_stringIcSt11char_traitsIcESaIcEEE>
  403b68:	88 c1                	mov    %al,%cl
  403b6a:	88 8d 27 ff ff ff    	mov    %cl,-0xd9(%rbp)
  403b70:	e9 00 00 00 00       	jmp    403b75 <_ZN3Btc9validDateERKNSt7__cxx1112basic_stringIcSt11char_traitsIcESaIcEEE+0xe5>
  403b75:	8a 85 27 ff ff ff    	mov    -0xd9(%rbp),%al
  403b7b:	a8 01                	test   $0x1,%al
  403b7d:	0f 85 05 00 00 00    	jne    403b88 <_ZN3Btc9validDateERKNSt7__cxx1112basic_stringIcSt11char_traitsIcESaIcEEE+0xf8>
  403b83:	e9 63 00 00 00       	jmp    403beb <_ZN3Btc9validDateERKNSt7__cxx1112basic_stringIcSt11char_traitsIcESaIcEEE+0x15b>
  403b88:	48 8b bd 28 ff ff ff 	mov    -0xd8(%rbp),%rdi
  403b8f:	48 8d 75 a8          	lea    -0x58(%rbp),%rsi
  403b93:	e8 c8 04 00 00       	call   404060 <_ZN3Btc10isDigitStrERKNSt7__cxx1112basic_stringIcSt11char_traitsIcESaIcEEE>
  403b98:	88 c1                	mov    %al,%cl
  403b9a:	88 8d 26 ff ff ff    	mov    %cl,-0xda(%rbp)
  403ba0:	e9 00 00 00 00       	jmp    403ba5 <_ZN3Btc9validDateERKNSt7__cxx1112basic_stringIcSt11char_traitsIcESaIcEEE+0x115>
  403ba5:	8a 85 26 ff ff ff    	mov    -0xda(%rbp),%al
  403bab:	a8 01                	test   $0x1,%al
  403bad:	0f 85 05 00 00 00    	jne    403bb8 <_ZN3Btc9validDateERKNSt7__cxx1112basic_stringIcSt11char_traitsIcESaIcEEE+0x128>
  403bb3:	e9 33 00 00 00       	jmp    403beb <_ZN3Btc9validDateERKNSt7__cxx1112basic_stringIcSt11char_traitsIcESaIcEEE+0x15b>
  403bb8:	48 8b bd 28 ff ff ff 	mov    -0xd8(%rbp),%rdi
  403bbf:	48 8d b5 78 ff ff ff 	lea    -0x88(%rbp),%rsi
  403bc6:	e8 95 04 00 00       	call   404060 <_ZN3Btc10isDigitStrERKNSt7__cxx1112basic_stringIcSt11char_traitsIcESaIcEEE>
  403bcb:	88 c1                	mov    %al,%cl
  403bcd:	88 8d 25 ff ff ff    	mov    %cl,-0xdb(%rbp)
  403bd3:	e9 00 00 00 00       	jmp    403bd8 <_ZN3Btc9validDateERKNSt7__cxx1112basic_stringIcSt11char_traitsIcESaIcEEE+0x148>
  403bd8:	8a 85 25 ff ff ff    	mov    -0xdb(%rbp),%al
  403bde:	a8 01                	test   $0x1,%al
  403be0:	0f 85 58 00 00 00    	jne    403c3e <_ZN3Btc9validDateERKNSt7__cxx1112basic_stringIcSt11char_traitsIcESaIcEEE+0x1ae>
  403be6:	e9 00 00 00 00       	jmp    403beb <_ZN3Btc9validDateERKNSt7__cxx1112basic_stringIcSt11char_traitsIcESaIcEEE+0x15b>
  403beb:	c6 45 ff 00          	movb   $0x0,-0x1(%rbp)
  403bef:	c7 85 74 ff ff ff 01 	movl   $0x1,-0x8c(%rbp)
  403bf6:	00 00 00 
  403bf9:	e9 b4 01 00 00       	jmp    403db2 <_ZN3Btc9validDateERKNSt7__cxx1112basic_stringIcSt11char_traitsIcESaIcEEE+0x322>
  403bfe:	48 89 c1             	mov    %rax,%rcx
  403c01:	89 d0                	mov    %edx,%eax
  403c03:	48 89 4d a0          	mov    %rcx,-0x60(%rbp)
  403c07:	89 45 9c             	mov    %eax,-0x64(%rbp)
  403c0a:	e9 e8 01 00 00       	jmp    403df7 <_ZN3Btc9validDateERKNSt7__cxx1112basic_stringIcSt11char_traitsIcESaIcEEE+0x367>
  403c0f:	48 89 c1             	mov    %rax,%rcx
  403c12:	89 d0                	mov    %edx,%eax
  403c14:	48 89 4d a0          	mov    %rcx,-0x60(%rbp)
  403c18:	89 45 9c             	mov    %eax,-0x64(%rbp)
  403c1b:	e9 c4 01 00 00       	jmp    403de4 <_ZN3Btc9validDateERKNSt7__cxx1112basic_stringIcSt11char_traitsIcESaIcEEE+0x354>
  403c20:	48 89 d1             	mov    %rdx,%rcx
  403c23:	48 89 c6             	mov    %rax,%rsi
  403c26:	48 89 75 a0          	mov    %rsi,-0x60(%rbp)
  403c2a:	89 4d 9c             	mov    %ecx,-0x64(%rbp)
  403c2d:	48 8d bd 78 ff ff ff 	lea    -0x88(%rbp),%rdi
  403c34:	e8 e7 e4 ff ff       	call   402120 <_ZNSt7__cxx1112basic_stringIcSt11char_traitsIcESaIcEED1Ev@plt>
  403c39:	e9 93 01 00 00       	jmp    403dd1 <_ZN3Btc9validDateERKNSt7__cxx1112basic_stringIcSt11char_traitsIcESaIcEEE+0x341>
  403c3e:	48 8b 7d e8          	mov    -0x18(%rbp),%rdi
  403c42:	e8 99 e4 ff ff       	call   4020e0 <_ZNKSt7__cxx1112basic_stringIcSt11char_traitsIcESaIcEE5c_strEv@plt>
  403c47:	48 89 c1             	mov    %rax,%rcx
  403c4a:	48 89 8d 18 ff ff ff 	mov    %rcx,-0xe8(%rbp)
  403c51:	e9 00 00 00 00       	jmp    403c56 <_ZN3Btc9validDateERKNSt7__cxx1112basic_stringIcSt11char_traitsIcESaIcEEE+0x1c6>
  403c56:	48 8b bd 18 ff ff ff 	mov    -0xe8(%rbp),%rdi
  403c5d:	48 be a3 60 40 00 00 	movabs $0x4060a3,%rsi
  403c64:	00 00 00 
  403c67:	48 8d 95 70 ff ff ff 	lea    -0x90(%rbp),%rdx
  403c6e:	48 8d 8d 6c ff ff ff 	lea    -0x94(%rbp),%rcx
  403c75:	4c 8d 85 68 ff ff ff 	lea    -0x98(%rbp),%r8
  403c7c:	b0 00                	mov    $0x0,%al
  403c7e:	e8 ad e4 ff ff       	call   402130 <sscanf@plt>
  403c83:	83 f8 03             	cmp    $0x3,%eax
  403c86:	0f 84 13 00 00 00    	je     403c9f <_ZN3Btc9validDateERKNSt7__cxx1112basic_stringIcSt11char_traitsIcESaIcEEE+0x20f>
  403c8c:	c6 45 ff 00          	movb   $0x0,-0x1(%rbp)
  403c90:	c7 85 74 ff ff ff 01 	movl   $0x1,-0x8c(%rbp)
  403c97:	00 00 00 
  403c9a:	e9 13 01 00 00       	jmp    403db2 <_ZN3Btc9validDateERKNSt7__cxx1112basic_stringIcSt11char_traitsIcESaIcEEE+0x322>
  403c9f:	83 bd 6c ff ff ff 01 	cmpl   $0x1,-0x94(%rbp)
  403ca6:	0f 8c 0d 00 00 00    	jl     403cb9 <_ZN3Btc9validDateERKNSt7__cxx1112basic_stringIcSt11char_traitsIcESaIcEEE+0x229>
  403cac:	83 bd 6c ff ff ff 0c 	cmpl   $0xc,-0x94(%rbp)
  403cb3:	0f 8e 13 00 00 00    	jle    403ccc <_ZN3Btc9validDateERKNSt7__cxx1112basic_stringIcSt11char_traitsIcESaIcEEE+0x23c>
  403cb9:	c6 45 ff 00          	movb   $0x0,-0x1(%rbp)
  403cbd:	c7 85 74 ff ff ff 01 	movl   $0x1,-0x8c(%rbp)
  403cc4:	00 00 00 
  403cc7:	e9 e6 00 00 00       	jmp    403db2 <_ZN3Btc9validDateERKNSt7__cxx1112basic_stringIcSt11char_traitsIcESaIcEEE+0x322>
  403ccc:	48 8d bd 30 ff ff ff 	lea    -0xd0(%rbp),%rdi
  403cd3:	48 be 10 61 40 00 00 	movabs $0x406110,%rsi
  403cda:	00 00 00 
  403cdd:	ba 30 00 00 00       	mov    $0x30,%edx
  403ce2:	e8 89 e4 ff ff       	call   402170 <memcpy@plt>
  403ce7:	83 bd 6c ff ff ff 02 	cmpl   $0x2,-0x94(%rbp)
  403cee:	0f 85 71 00 00 00    	jne    403d65 <_ZN3Btc9validDateERKNSt7__cxx1112basic_stringIcSt11char_traitsIcESaIcEEE+0x2d5>
  403cf4:	48 8b bd 28 ff ff ff 	mov    -0xd8(%rbp),%rdi
  403cfb:	8b b5 70 ff ff ff    	mov    -0x90(%rbp),%esi
  403d01:	e8 9a 04 00 00       	call   4041a0 <_ZN3Btc10isLeapYearEi>
  403d06:	88 c1                	mov    %al,%cl
  403d08:	88 8d 17 ff ff ff    	mov    %cl,-0xe9(%rbp)
  403d0e:	e9 00 00 00 00       	jmp    403d13 <_ZN3Btc9validDateERKNSt7__cxx1112basic_stringIcSt11char_traitsIcESaIcEEE+0x283>
  403d13:	8a 85 17 ff ff ff    	mov    -0xe9(%rbp),%al
  403d19:	a8 01                	test   $0x1,%al
  403d1b:	0f 85 05 00 00 00    	jne    403d26 <_ZN3Btc9validDateERKNSt7__cxx1112basic_stringIcSt11char_traitsIcESaIcEEE+0x296>
  403d21:	e9 3f 00 00 00       	jmp    403d65 <_ZN3Btc9validDateERKNSt7__cxx1112basic_stringIcSt11char_traitsIcESaIcEEE+0x2d5>
  403d26:	31 c0                	xor    %eax,%eax
  403d28:	83 bd 68 ff ff ff 01 	cmpl   $0x1,-0x98(%rbp)
  403d2f:	88 85 16 ff ff ff    	mov    %al,-0xea(%rbp)
  403d35:	0f 8c 10 00 00 00    	jl     403d4b <_ZN3Btc9validDateERKNSt7__cxx1112basic_stringIcSt11char_traitsIcESaIcEEE+0x2bb>
  403d3b:	83 bd 68 ff ff ff 1d 	cmpl   $0x1d,-0x98(%rbp)
  403d42:	0f 9e c0             	setle  %al
  403d45:	88 85 16 ff ff ff    	mov    %al,-0xea(%rbp)
  403d4b:	8a 85 16 ff ff ff    	mov    -0xea(%rbp),%al
  403d51:	24 01                	and    $0x1,%al
  403d53:	88 45 ff             	mov    %al,-0x1(%rbp)
  403d56:	c7 85 74 ff ff ff 01 	movl   $0x1,-0x8c(%rbp)
  403d5d:	00 00 00 
  403d60:	e9 4d 00 00 00       	jmp    403db2 <_ZN3Btc9validDateERKNSt7__cxx1112basic_stringIcSt11char_traitsIcESaIcEEE+0x322>
  403d65:	83 bd 68 ff ff ff 01 	cmpl   $0x1,-0x98(%rbp)
  403d6c:	0f 8c 32 00 00 00    	jl     403da4 <_ZN3Btc9validDateERKNSt7__cxx1112basic_stringIcSt11char_traitsIcESaIcEEE+0x314>
  403d72:	8b 85 68 ff ff ff    	mov    -0x98(%rbp),%eax
  403d78:	8b 8d 6c ff ff ff    	mov    -0x94(%rbp),%ecx
  403d7e:	83 e9 01             	sub    $0x1,%ecx
  403d81:	48 63 c9             	movslq %ecx,%rcx
  403d84:	3b 84 8d 30 ff ff ff 	cmp    -0xd0(%rbp,%rcx,4),%eax
  403d8b:	0f 8f 13 00 00 00    	jg     403da4 <_ZN3Btc9validDateERKNSt7__cxx1112basic_stringIcSt11char_traitsIcESaIcEEE+0x314>
  403d91:	c6 45 ff 01          	movb   $0x1,-0x1(%rbp)
  403d95:	c7 85 74 ff ff ff 01 	movl   $0x1,-0x8c(%rbp)
  403d9c:	00 00 00 
  403d9f:	e9 0e 00 00 00       	jmp    403db2 <_ZN3Btc9validDateERKNSt7__cxx1112basic_stringIcSt11char_traitsIcESaIcEEE+0x322>
  403da4:	c6 45 ff 00          	movb   $0x0,-0x1(%rbp)
  403da8:	c7 85 74 ff ff ff 01 	movl   $0x1,-0x8c(%rbp)
  403daf:	00 00 00 
  403db2:	48 8d bd 78 ff ff ff 	lea    -0x88(%rbp),%rdi
  403db9:	e8 62 e3 ff ff       	call   402120 <_ZNSt7__cxx1112basic_stringIcSt11char_traitsIcESaIcEED1Ev@plt>
  403dbe:	e9 00 00 00 00       	jmp    403dc3 <_ZN3Btc9validDateERKNSt7__cxx1112basic_stringIcSt11char_traitsIcESaIcEEE+0x333>
  403dc3:	48 8d 7d a8          	lea    -0x58(%rbp),%rdi
  403dc7:	e8 54 e3 ff ff       	call   402120 <_ZNSt7__cxx1112basic_stringIcSt11char_traitsIcESaIcEED1Ev@plt>
  403dcc:	e9 05 00 00 00       	jmp    403dd6 <_ZN3Btc9validDateERKNSt7__cxx1112basic_stringIcSt11char_traitsIcESaIcEEE+0x346>
  403dd1:	e9 0e 00 00 00       	jmp    403de4 <_ZN3Btc9validDateERKNSt7__cxx1112basic_stringIcSt11char_traitsIcESaIcEEE+0x354>
  403dd6:	48 8d 7d c8          	lea    -0x38(%rbp),%rdi
  403dda:	e8 41 e3 ff ff       	call   402120 <_ZNSt7__cxx1112basic_stringIcSt11char_traitsIcESaIcEED1Ev@plt>
  403ddf:	e9 26 00 00 00       	jmp    403e0a <_ZN3Btc9validDateERKNSt7__cxx1112basic_stringIcSt11char_traitsIcESaIcEEE+0x37a>
  403de4:	48 8d 7d a8          	lea    -0x58(%rbp),%rdi
  403de8:	e8 33 e3 ff ff       	call   402120 <_ZNSt7__cxx1112basic_stringIcSt11char_traitsIcESaIcEED1Ev@plt>
  403ded:	e9 00 00 00 00       	jmp    403df2 <_ZN3Btc9validDateERKNSt7__cxx1112basic_stringIcSt11char_traitsIcESaIcEEE+0x362>
  403df2:	e9 00 00 00 00       	jmp    403df7 <_ZN3Btc9validDateERKNSt7__cxx1112basic_stringIcSt11char_traitsIcESaIcEEE+0x367>
  403df7:	48 8d 7d c8          	lea    -0x38(%rbp),%rdi
  403dfb:	e8 20 e3 ff ff       	call   402120 <_ZNSt7__cxx1112basic_stringIcSt11char_traitsIcESaIcEED1Ev@plt>
  403e00:	e9 00 00 00 00       	jmp    403e05 <_ZN3Btc9validDateERKNSt7__cxx1112basic_stringIcSt11char_traitsIcESaIcEEE+0x375>
  403e05:	e9 11 00 00 00       	jmp    403e1b <_ZN3Btc9validDateERKNSt7__cxx1112basic_stringIcSt11char_traitsIcESaIcEEE+0x38b>
  403e0a:	8a 45 ff             	mov    -0x1(%rbp),%al
  403e0d:	24 01                	and    $0x1,%al
  403e0f:	0f b6 c0             	movzbl %al,%eax
  403e12:	48 81 c4 f0 00 00 00 	add    $0xf0,%rsp
  403e19:	5d                   	pop    %rbp
  403e1a:	c3                   	ret    
  403e1b:	48 8b 7d a0          	mov    -0x60(%rbp),%rdi
  403e1f:	e8 fc e4 ff ff       	call   402320 <_Unwind_Resume@plt>
  403e24:	48 89 c7             	mov    %rax,%rdi
  403e27:	e8 e4 e8 ff ff       	call   402710 <__clang_call_terminate>
  403e2c:	0f 1f 40 00          	nopl   0x0(%rax)

0000000000403e30 <_ZN3Btc10validValueERKNSt7__cxx1112basic_stringIcSt11char_traitsIcESaIcEEE>:
  403e30:	55                   	push   %rbp
  403e31:	48 89 e5             	mov    %rsp,%rbp
  403e34:	48 83 ec 30          	sub    $0x30,%rsp
  403e38:	48 89 7d f0          	mov    %rdi,-0x10(%rbp)
  403e3c:	48 89 75 e8          	mov    %rsi,-0x18(%rbp)
  403e40:	48 8b 7d f0          	mov    -0x10(%rbp),%rdi
  403e44:	48 8b 75 e8          	mov    -0x18(%rbp),%rsi
  403e48:	e8 13 02 00 00       	call   404060 <_ZN3Btc10isDigitStrERKNSt7__cxx1112basic_stringIcSt11char_traitsIcESaIcEEE>
  403e4d:	a8 01                	test   $0x1,%al
  403e4f:	0f 85 58 00 00 00    	jne    403ead <_ZN3Btc10validValueERKNSt7__cxx1112basic_stringIcSt11char_traitsIcESaIcEEE+0x7d>
  403e55:	48 bf 00 92 40 00 00 	movabs $0x409200,%rdi
  403e5c:	00 00 00 
  403e5f:	48 be 38 60 40 00 00 	movabs $0x406038,%rsi
  403e66:	00 00 00 
  403e69:	e8 52 e3 ff ff       	call   4021c0 <_ZStlsISt11char_traitsIcEERSt13basic_ostreamIcT_ES5_PKc@plt>
  403e6e:	48 89 c7             	mov    %rax,%rdi
  403e71:	48 be af 60 40 00 00 	movabs $0x4060af,%rsi
  403e78:	00 00 00 
  403e7b:	e8 40 e3 ff ff       	call   4021c0 <_ZStlsISt11char_traitsIcEERSt13basic_ostreamIcT_ES5_PKc@plt>
  403e80:	48 89 c7             	mov    %rax,%rdi
  403e83:	48 be 28 60 40 00 00 	movabs $0x406028,%rsi
  403e8a:	00 00 00 
  403e8d:	e8 2e e3 ff ff       	call   4021c0 <_ZStlsISt11char_traitsIcEERSt13basic_ostreamIcT_ES5_PKc@plt>
  403e92:	48 89 c7             	mov    %rax,%rdi
  403e95:	48 be 00 21 40 00 00 	movabs $0x402100,%rsi
  403e9c:	00 00 00 
  403e9f:	e8 6c e3 ff ff       	call   402210 <_ZNSolsEPFRSoS_E@plt>
  403ea4:	c6 45 ff 00          	movb   $0x0,-0x1(%rbp)
  403ea8:	e9 1c 01 00 00       	jmp    403fc9 <_ZN3Btc10validValueERKNSt7__cxx1112basic_stringIcSt11char_traitsIcESaIcEEE+0x199>
  403ead:	48 8b 7d e8          	mov    -0x18(%rbp),%rdi
  403eb1:	e8 2a e2 ff ff       	call   4020e0 <_ZNKSt7__cxx1112basic_stringIcSt11char_traitsIcESaIcEE5c_strEv@plt>
  403eb6:	48 89 c7             	mov    %rax,%rdi
  403eb9:	e8 92 e3 ff ff       	call   402250 <atof@plt>
  403ebe:	f2 0f 5a c0          	cvtsd2ss %xmm0,%xmm0
  403ec2:	f3 0f 11 45 e4       	movss  %xmm0,-0x1c(%rbp)
  403ec7:	0f 57 c0             	xorps  %xmm0,%xmm0
  403eca:	0f 2e 45 e4          	ucomiss -0x1c(%rbp),%xmm0
  403ece:	0f 86 58 00 00 00    	jbe    403f2c <_ZN3Btc10validValueERKNSt7__cxx1112basic_stringIcSt11char_traitsIcESaIcEEE+0xfc>
  403ed4:	48 bf 00 92 40 00 00 	movabs $0x409200,%rdi
  403edb:	00 00 00 
  403ede:	48 be 38 60 40 00 00 	movabs $0x406038,%rsi
  403ee5:	00 00 00 
  403ee8:	e8 d3 e2 ff ff       	call   4021c0 <_ZStlsISt11char_traitsIcEERSt13basic_ostreamIcT_ES5_PKc@plt>
  403eed:	48 89 c7             	mov    %rax,%rdi
  403ef0:	48 be cd 60 40 00 00 	movabs $0x4060cd,%rsi
  403ef7:	00 00 00 
  403efa:	e8 c1 e2 ff ff       	call   4021c0 <_ZStlsISt11char_traitsIcEERSt13basic_ostreamIcT_ES5_PKc@plt>
  403eff:	48 89 c7             	mov    %rax,%rdi
  403f02:	48 be 28 60 40 00 00 	movabs $0x406028,%rsi
  403f09:	00 00 00 
  403f0c:	e8 af e2 ff ff       	call   4021c0 <_ZStlsISt11char_traitsIcEERSt13basic_ostreamIcT_ES5_PKc@plt>
  403f11:	48 89 c7             	mov    %rax,%rdi
  403f14:	48 be 00 21 40 00 00 	movabs $0x402100,%rsi
  403f1b:	00 00 00 
  403f1e:	e8 ed e2 ff ff       	call   402210 <_ZNSolsEPFRSoS_E@plt>
  403f23:	c6 45 ff 00          	movb   $0x0,-0x1(%rbp)
  403f27:	e9 9d 00 00 00       	jmp    403fc9 <_ZN3Btc10validValueERKNSt7__cxx1112basic_stringIcSt11char_traitsIcESaIcEEE+0x199>
  403f2c:	f3 0f 10 45 e4       	movss  -0x1c(%rbp),%xmm0
  403f31:	f3 0f 11 45 e0       	movss  %xmm0,-0x20(%rbp)
  403f36:	e8 45 05 00 00       	call   404480 <_ZNSt14numeric_limitsIfE3maxEv>
  403f3b:	0f 28 c8             	movaps %xmm0,%xmm1
  403f3e:	f3 0f 10 45 e0       	movss  -0x20(%rbp),%xmm0
  403f43:	0f 2e c1             	ucomiss %xmm1,%xmm0
  403f46:	0f 87 21 00 00 00    	ja     403f6d <_ZN3Btc10validValueERKNSt7__cxx1112basic_stringIcSt11char_traitsIcESaIcEEE+0x13d>
  403f4c:	f3 0f 10 45 e4       	movss  -0x1c(%rbp),%xmm0
  403f51:	f3 0f 11 45 dc       	movss  %xmm0,-0x24(%rbp)
  403f56:	e8 35 05 00 00       	call   404490 <_ZNSt14numeric_limitsIiE3maxEv>
  403f5b:	f3 0f 10 45 dc       	movss  -0x24(%rbp),%xmm0
  403f60:	f3 0f 2a c8          	cvtsi2ss %eax,%xmm1
  403f64:	0f 2e c1             	ucomiss %xmm1,%xmm0
  403f67:	0f 82 58 00 00 00    	jb     403fc5 <_ZN3Btc10validValueERKNSt7__cxx1112basic_stringIcSt11char_traitsIcESaIcEEE+0x195>
  403f6d:	48 bf 00 92 40 00 00 	movabs $0x409200,%rdi
  403f74:	00 00 00 
  403f77:	48 be 38 60 40 00 00 	movabs $0x406038,%rsi
  403f7e:	00 00 00 
  403f81:	e8 3a e2 ff ff       	call   4021c0 <_ZStlsISt11char_traitsIcEERSt13basic_ostreamIcT_ES5_PKc@plt>
  403f86:	48 89 c7             	mov    %rax,%rdi
  403f89:	48 be eb 60 40 00 00 	movabs $0x4060eb,%rsi
  403f90:	00 00 00 
  403f93:	e8 28 e2 ff ff       	call   4021c0 <_ZStlsISt11char_traitsIcEERSt13basic_ostreamIcT_ES5_PKc@plt>
  403f98:	48 89 c7             	mov    %rax,%rdi
  403f9b:	48 be 28 60 40 00 00 	movabs $0x406028,%rsi
  403fa2:	00 00 00 
  403fa5:	e8 16 e2 ff ff       	call   4021c0 <_ZStlsISt11char_traitsIcEERSt13basic_ostreamIcT_ES5_PKc@plt>
  403faa:	48 89 c7             	mov    %rax,%rdi
  403fad:	48 be 00 21 40 00 00 	movabs $0x402100,%rsi
  403fb4:	00 00 00 
  403fb7:	e8 54 e2 ff ff       	call   402210 <_ZNSolsEPFRSoS_E@plt>
  403fbc:	c6 45 ff 00          	movb   $0x0,-0x1(%rbp)
  403fc0:	e9 04 00 00 00       	jmp    403fc9 <_ZN3Btc10validValueERKNSt7__cxx1112basic_stringIcSt11char_traitsIcESaIcEEE+0x199>
  403fc5:	c6 45 ff 01          	movb   $0x1,-0x1(%rbp)
  403fc9:	8a 45 ff             	mov    -0x1(%rbp),%al
  403fcc:	24 01                	and    $0x1,%al
  403fce:	0f b6 c0             	movzbl %al,%eax
  403fd1:	48 83 c4 30          	add    $0x30,%rsp
  403fd5:	5d                   	pop    %rbp
  403fd6:	c3                   	ret    
  403fd7:	66 0f 1f 84 00 00 00 	nopw   0x0(%rax,%rax,1)
  403fde:	00 00 

0000000000403fe0 <_ZN3Btc15getBitcoinPriceERKNSt7__cxx1112basic_stringIcSt11char_traitsIcESaIcEEE>:
  403fe0:	55                   	push   %rbp
  403fe1:	48 89 e5             	mov    %rsp,%rbp
  403fe4:	48 83 ec 30          	sub    $0x30,%rsp
  403fe8:	48 89 7d f0          	mov    %rdi,-0x10(%rbp)
  403fec:	48 89 75 e8          	mov    %rsi,-0x18(%rbp)
  403ff0:	48 8b 7d f0          	mov    -0x10(%rbp),%rdi
  403ff4:	48 89 7d d0          	mov    %rdi,-0x30(%rbp)
  403ff8:	48 8b 75 e8          	mov    -0x18(%rbp),%rsi
  403ffc:	e8 8f 05 00 00       	call   404590 <_ZNSt3mapINSt7__cxx1112basic_stringIcSt11char_traitsIcESaIcEEEfSt4lessIS5_ESaISt4pairIKS5_fEEE11lower_boundERS9_>
  404001:	48 8b 7d d0          	mov    -0x30(%rbp),%rdi
  404005:	48 89 45 e0          	mov    %rax,-0x20(%rbp)
  404009:	e8 e2 05 00 00       	call   4045f0 <_ZNSt3mapINSt7__cxx1112basic_stringIcSt11char_traitsIcESaIcEEEfSt4lessIS5_ESaISt4pairIKS5_fEEE3endEv>
  40400e:	48 89 45 d8          	mov    %rax,-0x28(%rbp)
  404012:	48 8d 7d e0          	lea    -0x20(%rbp),%rdi
  404016:	48 8d 75 d8          	lea    -0x28(%rbp),%rsi
  40401a:	e8 a1 05 00 00       	call   4045c0 <_ZStneRKSt17_Rb_tree_iteratorISt4pairIKNSt7__cxx1112basic_stringIcSt11char_traitsIcESaIcEEEfEESB_>
  40401f:	a8 01                	test   $0x1,%al
  404021:	0f 85 05 00 00 00    	jne    40402c <_ZN3Btc15getBitcoinPriceERKNSt7__cxx1112basic_stringIcSt11char_traitsIcESaIcEEE+0x4c>
  404027:	e9 18 00 00 00       	jmp    404044 <_ZN3Btc15getBitcoinPriceERKNSt7__cxx1112basic_stringIcSt11char_traitsIcESaIcEEE+0x64>
  40402c:	48 8d 7d e0          	lea    -0x20(%rbp),%rdi
  404030:	e8 eb 05 00 00       	call   404620 <_ZNKSt17_Rb_tree_iteratorISt4pairIKNSt7__cxx1112basic_stringIcSt11char_traitsIcESaIcEEEfEEptEv>
  404035:	f3 0f 10 40 20       	movss  0x20(%rax),%xmm0
  40403a:	f3 0f 11 45 fc       	movss  %xmm0,-0x4(%rbp)
  40403f:	e9 0d 00 00 00       	jmp    404051 <_ZN3Btc15getBitcoinPriceERKNSt7__cxx1112basic_stringIcSt11char_traitsIcESaIcEEE+0x71>
  404044:	f3 0f 10 05 e4 1f 00 	movss  0x1fe4(%rip),%xmm0        # 406030 <_IO_stdin_used+0x30>
  40404b:	00 
  40404c:	f3 0f 11 45 fc       	movss  %xmm0,-0x4(%rbp)
  404051:	f3 0f 10 45 fc       	movss  -0x4(%rbp),%xmm0
  404056:	48 83 c4 30          	add    $0x30,%rsp
  40405a:	5d                   	pop    %rbp
  40405b:	c3                   	ret    
  40405c:	0f 1f 40 00          	nopl   0x0(%rax)

0000000000404060 <_ZN3Btc10isDigitStrERKNSt7__cxx1112basic_stringIcSt11char_traitsIcESaIcEEE>:
  404060:	55                   	push   %rbp
  404061:	48 89 e5             	mov    %rsp,%rbp
  404064:	48 83 ec 30          	sub    $0x30,%rsp
  404068:	48 89 7d f0          	mov    %rdi,-0x10(%rbp)
  40406c:	48 89 75 e8          	mov    %rsi,-0x18(%rbp)
  404070:	c7 45 e4 00 00 00 00 	movl   $0x0,-0x1c(%rbp)
  404077:	48 c7 45 d8 00 00 00 	movq   $0x0,-0x28(%rbp)
  40407e:	00 
  40407f:	48 8b 45 d8          	mov    -0x28(%rbp),%rax
  404083:	48 89 45 d0          	mov    %rax,-0x30(%rbp)
  404087:	48 8b 7d e8          	mov    -0x18(%rbp),%rdi
  40408b:	e8 10 e2 ff ff       	call   4022a0 <_ZNKSt7__cxx1112basic_stringIcSt11char_traitsIcESaIcEE6lengthEv@plt>
  404090:	48 89 c1             	mov    %rax,%rcx
  404093:	48 8b 45 d0          	mov    -0x30(%rbp),%rax
  404097:	48 39 c8             	cmp    %rcx,%rax
  40409a:	0f 83 e0 00 00 00    	jae    404180 <_ZN3Btc10isDigitStrERKNSt7__cxx1112basic_stringIcSt11char_traitsIcESaIcEEE+0x120>
  4040a0:	48 8b 7d e8          	mov    -0x18(%rbp),%rdi
  4040a4:	48 8b 75 d8          	mov    -0x28(%rbp),%rsi
  4040a8:	e8 83 e1 ff ff       	call   402230 <_ZNKSt7__cxx1112basic_stringIcSt11char_traitsIcESaIcEEixEm@plt>
  4040ad:	0f be 00             	movsbl (%rax),%eax
  4040b0:	83 f8 2d             	cmp    $0x2d,%eax
  4040b3:	0f 84 19 00 00 00    	je     4040d2 <_ZN3Btc10isDigitStrERKNSt7__cxx1112basic_stringIcSt11char_traitsIcESaIcEEE+0x72>
  4040b9:	48 8b 7d e8          	mov    -0x18(%rbp),%rdi
  4040bd:	48 8b 75 d8          	mov    -0x28(%rbp),%rsi
  4040c1:	e8 6a e1 ff ff       	call   402230 <_ZNKSt7__cxx1112basic_stringIcSt11char_traitsIcESaIcEEixEm@plt>
  4040c6:	0f be 00             	movsbl (%rax),%eax
  4040c9:	83 f8 2b             	cmp    $0x2b,%eax
  4040cc:	0f 85 2c 00 00 00    	jne    4040fe <_ZN3Btc10isDigitStrERKNSt7__cxx1112basic_stringIcSt11char_traitsIcESaIcEEE+0x9e>
  4040d2:	8b 45 e4             	mov    -0x1c(%rbp),%eax
  4040d5:	83 c0 01             	add    $0x1,%eax
  4040d8:	89 45 e4             	mov    %eax,-0x1c(%rbp)
  4040db:	83 7d e4 01          	cmpl   $0x1,-0x1c(%rbp)
  4040df:	0f 8f 0b 00 00 00    	jg     4040f0 <_ZN3Btc10isDigitStrERKNSt7__cxx1112basic_stringIcSt11char_traitsIcESaIcEEE+0x90>
  4040e5:	48 83 7d d8 00       	cmpq   $0x0,-0x28(%rbp)
  4040ea:	0f 86 09 00 00 00    	jbe    4040f9 <_ZN3Btc10isDigitStrERKNSt7__cxx1112basic_stringIcSt11char_traitsIcESaIcEEE+0x99>
  4040f0:	c6 45 ff 00          	movb   $0x0,-0x1(%rbp)
  4040f4:	e9 8b 00 00 00       	jmp    404184 <_ZN3Btc10isDigitStrERKNSt7__cxx1112basic_stringIcSt11char_traitsIcESaIcEEE+0x124>
  4040f9:	e9 71 00 00 00       	jmp    40416f <_ZN3Btc10isDigitStrERKNSt7__cxx1112basic_stringIcSt11char_traitsIcESaIcEEE+0x10f>
  4040fe:	48 8b 7d e8          	mov    -0x18(%rbp),%rdi
  404102:	48 8b 75 d8          	mov    -0x28(%rbp),%rsi
  404106:	e8 25 e1 ff ff       	call   402230 <_ZNKSt7__cxx1112basic_stringIcSt11char_traitsIcESaIcEEixEm@plt>
  40410b:	0f be 00             	movsbl (%rax),%eax
  40410e:	83 f8 2e             	cmp    $0x2e,%eax
  404111:	0f 85 18 00 00 00    	jne    40412f <_ZN3Btc10isDigitStrERKNSt7__cxx1112basic_stringIcSt11char_traitsIcESaIcEEE+0xcf>
  404117:	83 7d e4 00          	cmpl   $0x0,-0x1c(%rbp)
  40411b:	0f 8e 09 00 00 00    	jle    40412a <_ZN3Btc10isDigitStrERKNSt7__cxx1112basic_stringIcSt11char_traitsIcESaIcEEE+0xca>
  404121:	c6 45 ff 00          	movb   $0x0,-0x1(%rbp)
  404125:	e9 5a 00 00 00       	jmp    404184 <_ZN3Btc10isDigitStrERKNSt7__cxx1112basic_stringIcSt11char_traitsIcESaIcEEE+0x124>
  40412a:	e9 40 00 00 00       	jmp    40416f <_ZN3Btc10isDigitStrERKNSt7__cxx1112basic_stringIcSt11char_traitsIcESaIcEEE+0x10f>
  40412f:	48 8b 7d e8          	mov    -0x18(%rbp),%rdi
  404133:	48 8b 75 d8          	mov    -0x28(%rbp),%rsi
  404137:	e8 f4 e0 ff ff       	call   402230 <_ZNKSt7__cxx1112basic_stringIcSt11char_traitsIcESaIcEEixEm@plt>
  40413c:	0f be 00             	movsbl (%rax),%eax
  40413f:	83 f8 30             	cmp    $0x30,%eax
  404142:	0f 8c 19 00 00 00    	jl     404161 <_ZN3Btc10isDigitStrERKNSt7__cxx1112basic_stringIcSt11char_traitsIcESaIcEEE+0x101>
  404148:	48 8b 7d e8          	mov    -0x18(%rbp),%rdi
  40414c:	48 8b 75 d8          	mov    -0x28(%rbp),%rsi
  404150:	e8 db e0 ff ff       	call   402230 <_ZNKSt7__cxx1112basic_stringIcSt11char_traitsIcESaIcEEixEm@plt>
  404155:	0f be 00             	movsbl (%rax),%eax
  404158:	83 f8 39             	cmp    $0x39,%eax
  40415b:	0f 8e 09 00 00 00    	jle    40416a <_ZN3Btc10isDigitStrERKNSt7__cxx1112basic_stringIcSt11char_traitsIcESaIcEEE+0x10a>
  404161:	c6 45 ff 00          	movb   $0x0,-0x1(%rbp)
  404165:	e9 1a 00 00 00       	jmp    404184 <_ZN3Btc10isDigitStrERKNSt7__cxx1112basic_stringIcSt11char_traitsIcESaIcEEE+0x124>
  40416a:	e9 00 00 00 00       	jmp    40416f <_ZN3Btc10isDigitStrERKNSt7__cxx1112basic_stringIcSt11char_traitsIcESaIcEEE+0x10f>
  40416f:	48 8b 45 d8          	mov    -0x28(%rbp),%rax
  404173:	48 83 c0 01          	add    $0x1,%rax
  404177:	48 89 45 d8          	mov    %rax,-0x28(%rbp)
  40417b:	e9 ff fe ff ff       	jmp    40407f <_ZN3Btc10isDigitStrERKNSt7__cxx1112basic_stringIcSt11char_traitsIcESaIcEEE+0x1f>
  404180:	c6 45 ff 01          	movb   $0x1,-0x1(%rbp)
  404184:	8a 45 ff             	mov    -0x1(%rbp),%al
  404187:	24 01                	and    $0x1,%al
  404189:	0f b6 c0             	movzbl %al,%eax
  40418c:	48 83 c4 30          	add    $0x30,%rsp
  404190:	5d                   	pop    %rbp
  404191:	c3                   	ret    
  404192:	66 2e 0f 1f 84 00 00 	cs nopw 0x0(%rax,%rax,1)
  404199:	00 00 00 
  40419c:	0f 1f 40 00          	nopl   0x0(%rax)

00000000004041a0 <_ZN3Btc10isLeapYearEi>:
  4041a0:	55                   	push   %rbp
  4041a1:	48 89 e5             	mov    %rsp,%rbp
  4041a4:	48 89 7d f8          	mov    %rdi,-0x8(%rbp)
  4041a8:	89 75 f4             	mov    %esi,-0xc(%rbp)
  4041ab:	8b 45 f4             	mov    -0xc(%rbp),%eax
  4041ae:	b9 04 00 00 00       	mov    $0x4,%ecx
  4041b3:	99                   	cltd   
  4041b4:	f7 f9                	idiv   %ecx
  4041b6:	83 fa 00             	cmp    $0x0,%edx
  4041b9:	0f 85 19 00 00 00    	jne    4041d8 <_ZN3Btc10isLeapYearEi+0x38>
  4041bf:	8b 45 f4             	mov    -0xc(%rbp),%eax
  4041c2:	b9 64 00 00 00       	mov    $0x64,%ecx
  4041c7:	99                   	cltd   
  4041c8:	f7 f9                	idiv   %ecx
  4041ca:	b0 01                	mov    $0x1,%al
  4041cc:	83 fa 00             	cmp    $0x0,%edx
  4041cf:	88 45 f3             	mov    %al,-0xd(%rbp)
  4041d2:	0f 85 14 00 00 00    	jne    4041ec <_ZN3Btc10isLeapYearEi+0x4c>
  4041d8:	8b 45 f4             	mov    -0xc(%rbp),%eax
  4041db:	b9 90 01 00 00       	mov    $0x190,%ecx
  4041e0:	99                   	cltd   
  4041e1:	f7 f9                	idiv   %ecx
  4041e3:	83 fa 00             	cmp    $0x0,%edx
  4041e6:	0f 94 c0             	sete   %al
  4041e9:	88 45 f3             	mov    %al,-0xd(%rbp)
  4041ec:	8a 45 f3             	mov    -0xd(%rbp),%al
  4041ef:	24 01                	and    $0x1,%al
  4041f1:	0f b6 c0             	movzbl %al,%eax
  4041f4:	5d                   	pop    %rbp
  4041f5:	c3                   	ret    
  4041f6:	66 2e 0f 1f 84 00 00 	cs nopw 0x0(%rax,%rax,1)
  4041fd:	00 00 00 

0000000000404200 <_ZNK3Btc10getDataCsvB5cxx11Ev>:
  404200:	55                   	push   %rbp
  404201:	48 89 e5             	mov    %rsp,%rbp
  404204:	48 89 7d f8          	mov    %rdi,-0x8(%rbp)
  404208:	48 8b 45 f8          	mov    -0x8(%rbp),%rax
  40420c:	5d                   	pop    %rbp
  40420d:	c3                   	ret    
  40420e:	66 90                	xchg   %ax,%ax

0000000000404210 <_ZNK3Btc9printDataEv>:
  404210:	55                   	push   %rbp
  404211:	48 89 e5             	mov    %rsp,%rbp
  404214:	48 83 ec 30          	sub    $0x30,%rsp
  404218:	48 89 7d f8          	mov    %rdi,-0x8(%rbp)
  40421c:	48 8b 7d f8          	mov    -0x8(%rbp),%rdi
  404220:	48 89 7d d8          	mov    %rdi,-0x28(%rbp)
  404224:	e8 77 02 00 00       	call   4044a0 <_ZNKSt3mapINSt7__cxx1112basic_stringIcSt11char_traitsIcESaIcEEEfSt4lessIS5_ESaISt4pairIKS5_fEEE5beginEv>
  404229:	48 89 45 f0          	mov    %rax,-0x10(%rbp)
  40422d:	48 8b 7d d8          	mov    -0x28(%rbp),%rdi
  404231:	e8 ca 02 00 00       	call   404500 <_ZNKSt3mapINSt7__cxx1112basic_stringIcSt11char_traitsIcESaIcEEEfSt4lessIS5_ESaISt4pairIKS5_fEEE3endEv>
  404236:	48 89 45 e8          	mov    %rax,-0x18(%rbp)
  40423a:	48 8d 7d f0          	lea    -0x10(%rbp),%rdi
  40423e:	48 8d 75 e8          	lea    -0x18(%rbp),%rsi
  404242:	e8 89 02 00 00       	call   4044d0 <_ZStneRKSt23_Rb_tree_const_iteratorISt4pairIKNSt7__cxx1112basic_stringIcSt11char_traitsIcESaIcEEEfEESB_>
  404247:	a8 01                	test   $0x1,%al
  404249:	0f 85 05 00 00 00    	jne    404254 <_ZNK3Btc9printDataEv+0x44>
  40424f:	e9 6e 00 00 00       	jmp    4042c2 <_ZNK3Btc9printDataEv+0xb2>
  404254:	48 8d 7d f0          	lea    -0x10(%rbp),%rdi
  404258:	e8 d3 02 00 00       	call   404530 <_ZNKSt23_Rb_tree_const_iteratorISt4pairIKNSt7__cxx1112basic_stringIcSt11char_traitsIcESaIcEEEfEEptEv>
  40425d:	48 89 c6             	mov    %rax,%rsi
  404260:	48 bf 00 92 40 00 00 	movabs $0x409200,%rdi
  404267:	00 00 00 
  40426a:	e8 31 df ff ff       	call   4021a0 <_ZStlsIcSt11char_traitsIcESaIcEERSt13basic_ostreamIT_T0_ES7_RKNSt7__cxx1112basic_stringIS4_S5_T1_EE@plt>
  40426f:	48 89 c7             	mov    %rax,%rdi
  404272:	48 be 94 60 40 00 00 	movabs $0x406094,%rsi
  404279:	00 00 00 
  40427c:	e8 3f df ff ff       	call   4021c0 <_ZStlsISt11char_traitsIcEERSt13basic_ostreamIcT_ES5_PKc@plt>
  404281:	48 89 45 d0          	mov    %rax,-0x30(%rbp)
  404285:	48 8d 7d f0          	lea    -0x10(%rbp),%rdi
  404289:	e8 a2 02 00 00       	call   404530 <_ZNKSt23_Rb_tree_const_iteratorISt4pairIKNSt7__cxx1112basic_stringIcSt11char_traitsIcESaIcEEEfEEptEv>
  40428e:	48 8b 7d d0          	mov    -0x30(%rbp),%rdi
  404292:	f3 0f 10 40 20       	movss  0x20(%rax),%xmm0
  404297:	e8 a4 de ff ff       	call   402140 <_ZNSolsEf@plt>
  40429c:	48 89 c7             	mov    %rax,%rdi
  40429f:	48 be 00 21 40 00 00 	movabs $0x402100,%rsi
  4042a6:	00 00 00 
  4042a9:	e8 62 df ff ff       	call   402210 <_ZNSolsEPFRSoS_E@plt>
  4042ae:	48 8d 7d f0          	lea    -0x10(%rbp),%rdi
  4042b2:	31 f6                	xor    %esi,%esi
  4042b4:	e8 97 02 00 00       	call   404550 <_ZNSt23_Rb_tree_const_iteratorISt4pairIKNSt7__cxx1112basic_stringIcSt11char_traitsIcESaIcEEEfEEppEi>
  4042b9:	48 89 45 e0          	mov    %rax,-0x20(%rbp)
  4042bd:	e9 6b ff ff ff       	jmp    40422d <_ZNK3Btc9printDataEv+0x1d>
  4042c2:	48 83 c4 30          	add    $0x30,%rsp
  4042c6:	5d                   	pop    %rbp
  4042c7:	c3                   	ret    
  4042c8:	0f 1f 84 00 00 00 00 	nopl   0x0(%rax,%rax,1)
  4042cf:	00 

00000000004042d0 <_ZNSt3mapINSt7__cxx1112basic_stringIcSt11char_traitsIcESaIcEEEfSt4lessIS5_ESaISt4pairIKS5_fEEEC2Ev>:
  4042d0:	55                   	push   %rbp
  4042d1:	48 89 e5             	mov    %rsp,%rbp
  4042d4:	48 83 ec 10          	sub    $0x10,%rsp
  4042d8:	48 89 7d f8          	mov    %rdi,-0x8(%rbp)
  4042dc:	48 8b 7d f8          	mov    -0x8(%rbp),%rdi
  4042e0:	e8 6b 07 00 00       	call   404a50 <_ZNSt8_Rb_treeINSt7__cxx1112basic_stringIcSt11char_traitsIcESaIcEEESt4pairIKS5_fESt10_Select1stIS8_ESt4lessIS5_ESaIS8_EEC2Ev>
  4042e5:	48 83 c4 10          	add    $0x10,%rsp
  4042e9:	5d                   	pop    %rbp
  4042ea:	c3                   	ret    
  4042eb:	0f 1f 44 00 00       	nopl   0x0(%rax,%rax,1)

00000000004042f0 <_ZStorSt13_Ios_OpenmodeS_>:
  4042f0:	55                   	push   %rbp
  4042f1:	48 89 e5             	mov    %rsp,%rbp
  4042f4:	89 7d fc             	mov    %edi,-0x4(%rbp)
  4042f7:	89 75 f8             	mov    %esi,-0x8(%rbp)
  4042fa:	8b 45 fc             	mov    -0x4(%rbp),%eax
  4042fd:	0b 45 f8             	or     -0x8(%rbp),%eax
  404300:	5d                   	pop    %rbp
  404301:	c3                   	ret    
  404302:	66 2e 0f 1f 84 00 00 	cs nopw 0x0(%rax,%rax,1)
  404309:	00 00 00 
  40430c:	0f 1f 40 00          	nopl   0x0(%rax)

0000000000404310 <_ZNSt3mapINSt7__cxx1112basic_stringIcSt11char_traitsIcESaIcEEEfSt4lessIS5_ESaISt4pairIKS5_fEEE6insertERKSA_>:
  404310:	55                   	push   %rbp
  404311:	48 89 e5             	mov    %rsp,%rbp
  404314:	48 83 ec 20          	sub    $0x20,%rsp
  404318:	48 89 7d e8          	mov    %rdi,-0x18(%rbp)
  40431c:	48 89 75 e0          	mov    %rsi,-0x20(%rbp)
  404320:	48 8b 7d e8          	mov    -0x18(%rbp),%rdi
  404324:	48 8b 75 e0          	mov    -0x20(%rbp),%rsi
  404328:	e8 83 08 00 00       	call   404bb0 <_ZNSt8_Rb_treeINSt7__cxx1112basic_stringIcSt11char_traitsIcESaIcEEESt4pairIKS5_fESt10_Select1stIS8_ESt4lessIS5_ESaIS8_EE16_M_insert_uniqueERKS8_>
  40432d:	48 89 45 f0          	mov    %rax,-0x10(%rbp)
  404331:	88 55 f8             	mov    %dl,-0x8(%rbp)
  404334:	48 8b 45 f0          	mov    -0x10(%rbp),%rax
  404338:	8a 55 f8             	mov    -0x8(%rbp),%dl
  40433b:	48 83 c4 20          	add    $0x20,%rsp
  40433f:	5d                   	pop    %rbp
  404340:	c3                   	ret    
  404341:	66 2e 0f 1f 84 00 00 	cs nopw 0x0(%rax,%rax,1)
  404348:	00 00 00 
  40434b:	0f 1f 44 00 00       	nopl   0x0(%rax,%rax,1)

0000000000404350 <_ZSt9make_pairINSt7__cxx1112basic_stringIcSt11char_traitsIcESaIcEEEfESt4pairIT_T0_ES7_S8_>:
  404350:	55                   	push   %rbp
  404351:	48 89 e5             	mov    %rsp,%rbp
  404354:	48 83 ec 20          	sub    $0x20,%rsp
  404358:	48 89 f8             	mov    %rdi,%rax
  40435b:	48 89 45 e8          	mov    %rax,-0x18(%rbp)
  40435f:	48 89 f8             	mov    %rdi,%rax
  404362:	48 89 45 f8          	mov    %rax,-0x8(%rbp)
  404366:	f3 0f 11 45 f4       	movss  %xmm0,-0xc(%rbp)
  40436b:	48 8d 55 f4          	lea    -0xc(%rbp),%rdx
  40436f:	e8 fc 07 00 00       	call   404b70 <_ZNSt4pairINSt7__cxx1112basic_stringIcSt11char_traitsIcESaIcEEEfEC2ERKS5_RKf>
  404374:	48 8b 45 e8          	mov    -0x18(%rbp),%rax
  404378:	48 83 c4 20          	add    $0x20,%rsp
  40437c:	5d                   	pop    %rbp
  40437d:	c3                   	ret    
  40437e:	66 90                	xchg   %ax,%ax

0000000000404380 <_ZNSt4pairIKNSt7__cxx1112basic_stringIcSt11char_traitsIcESaIcEEEfEC2IS5_fEERKS_IT_T0_E>:
  404380:	55                   	push   %rbp
  404381:	48 89 e5             	mov    %rsp,%rbp
  404384:	48 83 ec 20          	sub    $0x20,%rsp
  404388:	48 89 7d f8          	mov    %rdi,-0x8(%rbp)
  40438c:	48 89 75 f0          	mov    %rsi,-0x10(%rbp)
  404390:	48 8b 7d f8          	mov    -0x8(%rbp),%rdi
  404394:	48 89 7d e8          	mov    %rdi,-0x18(%rbp)
  404398:	48 8b 75 f0          	mov    -0x10(%rbp),%rsi
  40439c:	e8 4f dd ff ff       	call   4020f0 <_ZNSt7__cxx1112basic_stringIcSt11char_traitsIcESaIcEEC1ERKS4_@plt>
  4043a1:	48 8b 45 e8          	mov    -0x18(%rbp),%rax
  4043a5:	48 8b 4d f0          	mov    -0x10(%rbp),%rcx
  4043a9:	f3 0f 10 41 20       	movss  0x20(%rcx),%xmm0
  4043ae:	f3 0f 11 40 20       	movss  %xmm0,0x20(%rax)
  4043b3:	48 83 c4 20          	add    $0x20,%rsp
  4043b7:	5d                   	pop    %rbp
  4043b8:	c3                   	ret    
  4043b9:	0f 1f 80 00 00 00 00 	nopl   0x0(%rax)

00000000004043c0 <_ZNSt4pairIKNSt7__cxx1112basic_stringIcSt11char_traitsIcESaIcEEEfED2Ev>:
  4043c0:	55                   	push   %rbp
  4043c1:	48 89 e5             	mov    %rsp,%rbp
  4043c4:	48 83 ec 10          	sub    $0x10,%rsp
  4043c8:	48 89 7d f8          	mov    %rdi,-0x8(%rbp)
  4043cc:	48 8b 7d f8          	mov    -0x8(%rbp),%rdi
  4043d0:	e8 4b dd ff ff       	call   402120 <_ZNSt7__cxx1112basic_stringIcSt11char_traitsIcESaIcEED1Ev@plt>
  4043d5:	48 83 c4 10          	add    $0x10,%rsp
  4043d9:	5d                   	pop    %rbp
  4043da:	c3                   	ret    
  4043db:	0f 1f 44 00 00       	nopl   0x0(%rax,%rax,1)

00000000004043e0 <_ZNSt4pairINSt7__cxx1112basic_stringIcSt11char_traitsIcESaIcEEEfED2Ev>:
  4043e0:	55                   	push   %rbp
  4043e1:	48 89 e5             	mov    %rsp,%rbp
  4043e4:	48 83 ec 10          	sub    $0x10,%rsp
  4043e8:	48 89 7d f8          	mov    %rdi,-0x8(%rbp)
  4043ec:	48 8b 7d f8          	mov    -0x8(%rbp),%rdi
  4043f0:	e8 2b dd ff ff       	call   402120 <_ZNSt7__cxx1112basic_stringIcSt11char_traitsIcESaIcEED1Ev@plt>
  4043f5:	48 83 c4 10          	add    $0x10,%rsp
  4043f9:	5d                   	pop    %rbp
  4043fa:	c3                   	ret    
  4043fb:	0f 1f 44 00 00       	nopl   0x0(%rax,%rax,1)

0000000000404400 <_ZNSt3mapINSt7__cxx1112basic_stringIcSt11char_traitsIcESaIcEEEfSt4lessIS5_ESaISt4pairIKS5_fEEED2Ev>:
  404400:	55                   	push   %rbp
  404401:	48 89 e5             	mov    %rsp,%rbp
  404404:	48 83 ec 10          	sub    $0x10,%rsp
  404408:	48 89 7d f8          	mov    %rdi,-0x8(%rbp)
  40440c:	48 8b 7d f8          	mov    -0x8(%rbp),%rdi
  404410:	e8 2b 02 00 00       	call   404640 <_ZNSt8_Rb_treeINSt7__cxx1112basic_stringIcSt11char_traitsIcESaIcEEESt4pairIKS5_fESt10_Select1stIS8_ESt4lessIS5_ESaIS8_EED2Ev>
  404415:	48 83 c4 10          	add    $0x10,%rsp
  404419:	5d                   	pop    %rbp
  40441a:	c3                   	ret    
  40441b:	0f 1f 44 00 00       	nopl   0x0(%rax,%rax,1)

0000000000404420 <_ZNSt3mapINSt7__cxx1112basic_stringIcSt11char_traitsIcESaIcEEEfSt4lessIS5_ESaISt4pairIKS5_fEEEaSERKSC_>:
  404420:	55                   	push   %rbp
  404421:	48 89 e5             	mov    %rsp,%rbp
  404424:	48 83 ec 20          	sub    $0x20,%rsp
  404428:	48 89 7d f8          	mov    %rdi,-0x8(%rbp)
  40442c:	48 89 75 f0          	mov    %rsi,-0x10(%rbp)
  404430:	48 8b 7d f8          	mov    -0x8(%rbp),%rdi
  404434:	48 89 7d e8          	mov    %rdi,-0x18(%rbp)
  404438:	48 8b 75 f0          	mov    -0x10(%rbp),%rsi
  40443c:	e8 cf 0f 00 00       	call   405410 <_ZNSt8_Rb_treeINSt7__cxx1112basic_stringIcSt11char_traitsIcESaIcEEESt4pairIKS5_fESt10_Select1stIS8_ESt4lessIS5_ESaIS8_EEaSERKSE_>
  404441:	48 8b 45 e8          	mov    -0x18(%rbp),%rax
  404445:	48 83 c4 20          	add    $0x20,%rsp
  404449:	5d                   	pop    %rbp
  40444a:	c3                   	ret    
  40444b:	0f 1f 44 00 00       	nopl   0x0(%rax,%rax,1)

0000000000404450 <_ZSteqIcSt11char_traitsIcESaIcEEbRKNSt7__cxx1112basic_stringIT_T0_T1_EEPKS5_>:
  404450:	55                   	push   %rbp
  404451:	48 89 e5             	mov    %rsp,%rbp
  404454:	48 83 ec 10          	sub    $0x10,%rsp
  404458:	48 89 7d f8          	mov    %rdi,-0x8(%rbp)
  40445c:	48 89 75 f0          	mov    %rsi,-0x10(%rbp)
  404460:	48 8b 7d f8          	mov    -0x8(%rbp),%rdi
  404464:	48 8b 75 f0          	mov    -0x10(%rbp),%rsi
  404468:	e8 43 dc ff ff       	call   4020b0 <_ZNKSt7__cxx1112basic_stringIcSt11char_traitsIcESaIcEE7compareEPKc@plt>
  40446d:	83 f8 00             	cmp    $0x0,%eax
  404470:	0f 94 c0             	sete   %al
  404473:	24 01                	and    $0x1,%al
  404475:	0f b6 c0             	movzbl %al,%eax
  404478:	48 83 c4 10          	add    $0x10,%rsp
  40447c:	5d                   	pop    %rbp
  40447d:	c3                   	ret    
  40447e:	66 90                	xchg   %ax,%ax

0000000000404480 <_ZNSt14numeric_limitsIfE3maxEv>:
  404480:	55                   	push   %rbp
  404481:	48 89 e5             	mov    %rsp,%rbp
  404484:	f3 0f 10 05 a8 1b 00 	movss  0x1ba8(%rip),%xmm0        # 406034 <_IO_stdin_used+0x34>
  40448b:	00 
  40448c:	5d                   	pop    %rbp
  40448d:	c3                   	ret    
  40448e:	66 90                	xchg   %ax,%ax

0000000000404490 <_ZNSt14numeric_limitsIiE3maxEv>:
  404490:	55                   	push   %rbp
  404491:	48 89 e5             	mov    %rsp,%rbp
  404494:	b8 ff ff ff 7f       	mov    $0x7fffffff,%eax
  404499:	5d                   	pop    %rbp
  40449a:	c3                   	ret    
  40449b:	0f 1f 44 00 00       	nopl   0x0(%rax,%rax,1)

00000000004044a0 <_ZNKSt3mapINSt7__cxx1112basic_stringIcSt11char_traitsIcESaIcEEEfSt4lessIS5_ESaISt4pairIKS5_fEEE5beginEv>:
  4044a0:	55                   	push   %rbp
  4044a1:	48 89 e5             	mov    %rsp,%rbp
  4044a4:	48 83 ec 10          	sub    $0x10,%rsp
  4044a8:	48 89 7d f0          	mov    %rdi,-0x10(%rbp)
  4044ac:	48 8b 7d f0          	mov    -0x10(%rbp),%rdi
  4044b0:	e8 db 16 00 00       	call   405b90 <_ZNKSt8_Rb_treeINSt7__cxx1112basic_stringIcSt11char_traitsIcESaIcEEESt4pairIKS5_fESt10_Select1stIS8_ESt4lessIS5_ESaIS8_EE5beginEv>
  4044b5:	48 89 45 f8          	mov    %rax,-0x8(%rbp)
  4044b9:	48 8b 45 f8          	mov    -0x8(%rbp),%rax
  4044bd:	48 83 c4 10          	add    $0x10,%rsp
  4044c1:	5d                   	pop    %rbp
  4044c2:	c3                   	ret    
  4044c3:	66 2e 0f 1f 84 00 00 	cs nopw 0x0(%rax,%rax,1)
  4044ca:	00 00 00 
  4044cd:	0f 1f 00             	nopl   (%rax)

00000000004044d0 <_ZStneRKSt23_Rb_tree_const_iteratorISt4pairIKNSt7__cxx1112basic_stringIcSt11char_traitsIcESaIcEEEfEESB_>:
  4044d0:	55                   	push   %rbp
  4044d1:	48 89 e5             	mov    %rsp,%rbp
  4044d4:	48 89 7d f8          	mov    %rdi,-0x8(%rbp)
  4044d8:	48 89 75 f0          	mov    %rsi,-0x10(%rbp)
  4044dc:	48 8b 45 f8          	mov    -0x8(%rbp),%rax
  4044e0:	48 8b 00             	mov    (%rax),%rax
  4044e3:	48 8b 4d f0          	mov    -0x10(%rbp),%rcx
  4044e7:	48 3b 01             	cmp    (%rcx),%rax
  4044ea:	0f 95 c0             	setne  %al
  4044ed:	24 01                	and    $0x1,%al
  4044ef:	0f b6 c0             	movzbl %al,%eax
  4044f2:	5d                   	pop    %rbp
  4044f3:	c3                   	ret    
  4044f4:	66 2e 0f 1f 84 00 00 	cs nopw 0x0(%rax,%rax,1)
  4044fb:	00 00 00 
  4044fe:	66 90                	xchg   %ax,%ax

0000000000404500 <_ZNKSt3mapINSt7__cxx1112basic_stringIcSt11char_traitsIcESaIcEEEfSt4lessIS5_ESaISt4pairIKS5_fEEE3endEv>:
  404500:	55                   	push   %rbp
  404501:	48 89 e5             	mov    %rsp,%rbp
  404504:	48 83 ec 10          	sub    $0x10,%rsp
  404508:	48 89 7d f0          	mov    %rdi,-0x10(%rbp)
  40450c:	48 8b 7d f0          	mov    -0x10(%rbp),%rdi
  404510:	e8 cb 16 00 00       	call   405be0 <_ZNKSt8_Rb_treeINSt7__cxx1112basic_stringIcSt11char_traitsIcESaIcEEESt4pairIKS5_fESt10_Select1stIS8_ESt4lessIS5_ESaIS8_EE3endEv>
  404515:	48 89 45 f8          	mov    %rax,-0x8(%rbp)
  404519:	48 8b 45 f8          	mov    -0x8(%rbp),%rax
  40451d:	48 83 c4 10          	add    $0x10,%rsp
  404521:	5d                   	pop    %rbp
  404522:	c3                   	ret    
  404523:	66 2e 0f 1f 84 00 00 	cs nopw 0x0(%rax,%rax,1)
  40452a:	00 00 00 
  40452d:	0f 1f 00             	nopl   (%rax)

0000000000404530 <_ZNKSt23_Rb_tree_const_iteratorISt4pairIKNSt7__cxx1112basic_stringIcSt11char_traitsIcESaIcEEEfEEptEv>:
  404530:	55                   	push   %rbp
  404531:	48 89 e5             	mov    %rsp,%rbp
  404534:	48 83 ec 10          	sub    $0x10,%rsp
  404538:	48 89 7d f8          	mov    %rdi,-0x8(%rbp)
  40453c:	48 8b 45 f8          	mov    -0x8(%rbp),%rax
  404540:	48 8b 38             	mov    (%rax),%rdi
  404543:	e8 d8 0b 00 00       	call   405120 <_ZNKSt13_Rb_tree_nodeISt4pairIKNSt7__cxx1112basic_stringIcSt11char_traitsIcESaIcEEEfEE9_M_valptrEv>
  404548:	48 83 c4 10          	add    $0x10,%rsp
  40454c:	5d                   	pop    %rbp
  40454d:	c3                   	ret    
  40454e:	66 90                	xchg   %ax,%ax

0000000000404550 <_ZNSt23_Rb_tree_const_iteratorISt4pairIKNSt7__cxx1112basic_stringIcSt11char_traitsIcESaIcEEEfEEppEi>:
  404550:	55                   	push   %rbp
  404551:	48 89 e5             	mov    %rsp,%rbp
  404554:	48 83 ec 20          	sub    $0x20,%rsp
  404558:	48 89 7d f0          	mov    %rdi,-0x10(%rbp)
  40455c:	89 75 ec             	mov    %esi,-0x14(%rbp)
  40455f:	48 8b 45 f0          	mov    -0x10(%rbp),%rax
  404563:	48 89 45 e0          	mov    %rax,-0x20(%rbp)
  404567:	48 8b 08             	mov    (%rax),%rcx
  40456a:	48 89 4d f8          	mov    %rcx,-0x8(%rbp)
  40456e:	48 8b 38             	mov    (%rax),%rdi
  404571:	e8 ca dc ff ff       	call   402240 <_ZSt18_Rb_tree_incrementPKSt18_Rb_tree_node_base@plt>
  404576:	48 89 c1             	mov    %rax,%rcx
  404579:	48 8b 45 e0          	mov    -0x20(%rbp),%rax
  40457d:	48 89 08             	mov    %rcx,(%rax)
  404580:	48 8b 45 f8          	mov    -0x8(%rbp),%rax
  404584:	48 83 c4 20          	add    $0x20,%rsp
  404588:	5d                   	pop    %rbp
  404589:	c3                   	ret    
  40458a:	66 0f 1f 44 00 00    	nopw   0x0(%rax,%rax,1)

0000000000404590 <_ZNSt3mapINSt7__cxx1112basic_stringIcSt11char_traitsIcESaIcEEEfSt4lessIS5_ESaISt4pairIKS5_fEEE11lower_boundERS9_>:
  404590:	55                   	push   %rbp
  404591:	48 89 e5             	mov    %rsp,%rbp
  404594:	48 83 ec 20          	sub    $0x20,%rsp
  404598:	48 89 7d f0          	mov    %rdi,-0x10(%rbp)
  40459c:	48 89 75 e8          	mov    %rsi,-0x18(%rbp)
  4045a0:	48 8b 7d f0          	mov    -0x10(%rbp),%rdi
  4045a4:	48 8b 75 e8          	mov    -0x18(%rbp),%rsi
  4045a8:	e8 63 16 00 00       	call   405c10 <_ZNSt8_Rb_treeINSt7__cxx1112basic_stringIcSt11char_traitsIcESaIcEEESt4pairIKS5_fESt10_Select1stIS8_ESt4lessIS5_ESaIS8_EE11lower_boundERS7_>
  4045ad:	48 89 45 f8          	mov    %rax,-0x8(%rbp)
  4045b1:	48 8b 45 f8          	mov    -0x8(%rbp),%rax
  4045b5:	48 83 c4 20          	add    $0x20,%rsp
  4045b9:	5d                   	pop    %rbp
  4045ba:	c3                   	ret    
  4045bb:	0f 1f 44 00 00       	nopl   0x0(%rax,%rax,1)

00000000004045c0 <_ZStneRKSt17_Rb_tree_iteratorISt4pairIKNSt7__cxx1112basic_stringIcSt11char_traitsIcESaIcEEEfEESB_>:
  4045c0:	55                   	push   %rbp
  4045c1:	48 89 e5             	mov    %rsp,%rbp
  4045c4:	48 89 7d f8          	mov    %rdi,-0x8(%rbp)
  4045c8:	48 89 75 f0          	mov    %rsi,-0x10(%rbp)
  4045cc:	48 8b 45 f8          	mov    -0x8(%rbp),%rax
  4045d0:	48 8b 00             	mov    (%rax),%rax
  4045d3:	48 8b 4d f0          	mov    -0x10(%rbp),%rcx
  4045d7:	48 3b 01             	cmp    (%rcx),%rax
  4045da:	0f 95 c0             	setne  %al
  4045dd:	24 01                	and    $0x1,%al
  4045df:	0f b6 c0             	movzbl %al,%eax
  4045e2:	5d                   	pop    %rbp
  4045e3:	c3                   	ret    
  4045e4:	66 2e 0f 1f 84 00 00 	cs nopw 0x0(%rax,%rax,1)
  4045eb:	00 00 00 
  4045ee:	66 90                	xchg   %ax,%ax

00000000004045f0 <_ZNSt3mapINSt7__cxx1112basic_stringIcSt11char_traitsIcESaIcEEEfSt4lessIS5_ESaISt4pairIKS5_fEEE3endEv>:
  4045f0:	55                   	push   %rbp
  4045f1:	48 89 e5             	mov    %rsp,%rbp
  4045f4:	48 83 ec 10          	sub    $0x10,%rsp
  4045f8:	48 89 7d f0          	mov    %rdi,-0x10(%rbp)
  4045fc:	48 8b 7d f0          	mov    -0x10(%rbp),%rdi
  404600:	e8 fb 16 00 00       	call   405d00 <_ZNSt8_Rb_treeINSt7__cxx1112basic_stringIcSt11char_traitsIcESaIcEEESt4pairIKS5_fESt10_Select1stIS8_ESt4lessIS5_ESaIS8_EE3endEv>
  404605:	48 89 45 f8          	mov    %rax,-0x8(%rbp)
  404609:	48 8b 45 f8          	mov    -0x8(%rbp),%rax
  40460d:	48 83 c4 10          	add    $0x10,%rsp
  404611:	5d                   	pop    %rbp
  404612:	c3                   	ret    
  404613:	66 2e 0f 1f 84 00 00 	cs nopw 0x0(%rax,%rax,1)
  40461a:	00 00 00 
  40461d:	0f 1f 00             	nopl   (%rax)

0000000000404620 <_ZNKSt17_Rb_tree_iteratorISt4pairIKNSt7__cxx1112basic_stringIcSt11char_traitsIcESaIcEEEfEEptEv>:
  404620:	55                   	push   %rbp
  404621:	48 89 e5             	mov    %rsp,%rbp
  404624:	48 83 ec 10          	sub    $0x10,%rsp
  404628:	48 89 7d f8          	mov    %rdi,-0x8(%rbp)
  40462c:	48 8b 45 f8          	mov    -0x8(%rbp),%rax
  404630:	48 8b 38             	mov    (%rax),%rdi
  404633:	e8 b8 02 00 00       	call   4048f0 <_ZNSt13_Rb_tree_nodeISt4pairIKNSt7__cxx1112basic_stringIcSt11char_traitsIcESaIcEEEfEE9_M_valptrEv>
  404638:	48 83 c4 10          	add    $0x10,%rsp
  40463c:	5d                   	pop    %rbp
  40463d:	c3                   	ret    
  40463e:	66 90                	xchg   %ax,%ax

0000000000404640 <_ZNSt8_Rb_treeINSt7__cxx1112basic_stringIcSt11char_traitsIcESaIcEEESt4pairIKS5_fESt10_Select1stIS8_ESt4lessIS5_ESaIS8_EED2Ev>:
  404640:	55                   	push   %rbp
  404641:	48 89 e5             	mov    %rsp,%rbp
  404644:	48 83 ec 30          	sub    $0x30,%rsp
  404648:	48 89 7d f8          	mov    %rdi,-0x8(%rbp)
  40464c:	48 8b 7d f8          	mov    -0x8(%rbp),%rdi
  404650:	48 89 7d d8          	mov    %rdi,-0x28(%rbp)
  404654:	e8 c7 00 00 00       	call   404720 <_ZNSt8_Rb_treeINSt7__cxx1112basic_stringIcSt11char_traitsIcESaIcEEESt4pairIKS5_fESt10_Select1stIS8_ESt4lessIS5_ESaIS8_EE8_M_beginEv>
  404659:	48 89 c1             	mov    %rax,%rcx
  40465c:	48 89 4d e0          	mov    %rcx,-0x20(%rbp)
  404660:	e9 00 00 00 00       	jmp    404665 <_ZNSt8_Rb_treeINSt7__cxx1112basic_stringIcSt11char_traitsIcESaIcEEESt4pairIKS5_fESt10_Select1stIS8_ESt4lessIS5_ESaIS8_EED2Ev+0x25>
  404665:	48 8b 75 e0          	mov    -0x20(%rbp),%rsi
  404669:	48 8b 7d d8          	mov    -0x28(%rbp),%rdi
  40466d:	e8 3e 00 00 00       	call   4046b0 <_ZNSt8_Rb_treeINSt7__cxx1112basic_stringIcSt11char_traitsIcESaIcEEESt4pairIKS5_fESt10_Select1stIS8_ESt4lessIS5_ESaIS8_EE8_M_eraseEPSt13_Rb_tree_nodeIS8_E>
  404672:	e9 00 00 00 00       	jmp    404677 <_ZNSt8_Rb_treeINSt7__cxx1112basic_stringIcSt11char_traitsIcESaIcEEESt4pairIKS5_fESt10_Select1stIS8_ESt4lessIS5_ESaIS8_EED2Ev+0x37>
  404677:	48 8b 7d d8          	mov    -0x28(%rbp),%rdi
  40467b:	e8 c0 00 00 00       	call   404740 <_ZNSt8_Rb_treeINSt7__cxx1112basic_stringIcSt11char_traitsIcESaIcEEESt4pairIKS5_fESt10_Select1stIS8_ESt4lessIS5_ESaIS8_EE13_Rb_tree_implISC_Lb0EED2Ev>
  404680:	48 83 c4 30          	add    $0x30,%rsp
  404684:	5d                   	pop    %rbp
  404685:	c3                   	ret    
  404686:	48 8b 7d d8          	mov    -0x28(%rbp),%rdi
  40468a:	48 89 c1             	mov    %rax,%rcx
  40468d:	89 d0                	mov    %edx,%eax
  40468f:	48 89 4d f0          	mov    %rcx,-0x10(%rbp)
  404693:	89 45 ec             	mov    %eax,-0x14(%rbp)
  404696:	e8 a5 00 00 00       	call   404740 <_ZNSt8_Rb_treeINSt7__cxx1112basic_stringIcSt11char_traitsIcESaIcEEESt4pairIKS5_fESt10_Select1stIS8_ESt4lessIS5_ESaIS8_EE13_Rb_tree_implISC_Lb0EED2Ev>
  40469b:	48 8b 7d f0          	mov    -0x10(%rbp),%rdi
  40469f:	e8 7c dc ff ff       	call   402320 <_Unwind_Resume@plt>
  4046a4:	66 2e 0f 1f 84 00 00 	cs nopw 0x0(%rax,%rax,1)
  4046ab:	00 00 00 
  4046ae:	66 90                	xchg   %ax,%ax

00000000004046b0 <_ZNSt8_Rb_treeINSt7__cxx1112basic_stringIcSt11char_traitsIcESaIcEEESt4pairIKS5_fESt10_Select1stIS8_ESt4lessIS5_ESaIS8_EE8_M_eraseEPSt13_Rb_tree_nodeIS8_E>:
  4046b0:	55                   	push   %rbp
  4046b1:	48 89 e5             	mov    %rsp,%rbp
  4046b4:	48 83 ec 20          	sub    $0x20,%rsp
  4046b8:	48 89 7d f8          	mov    %rdi,-0x8(%rbp)
  4046bc:	48 89 75 f0          	mov    %rsi,-0x10(%rbp)
  4046c0:	48 8b 45 f8          	mov    -0x8(%rbp),%rax
  4046c4:	48 89 45 e0          	mov    %rax,-0x20(%rbp)
  4046c8:	48 83 7d f0 00       	cmpq   $0x0,-0x10(%rbp)
  4046cd:	0f 84 3c 00 00 00    	je     40470f <_ZNSt8_Rb_treeINSt7__cxx1112basic_stringIcSt11char_traitsIcESaIcEEESt4pairIKS5_fESt10_Select1stIS8_ESt4lessIS5_ESaIS8_EE8_M_eraseEPSt13_Rb_tree_nodeIS8_E+0x5f>
  4046d3:	48 8b 7d f0          	mov    -0x10(%rbp),%rdi
  4046d7:	e8 84 00 00 00       	call   404760 <_ZNSt8_Rb_treeINSt7__cxx1112basic_stringIcSt11char_traitsIcESaIcEEESt4pairIKS5_fESt10_Select1stIS8_ESt4lessIS5_ESaIS8_EE8_S_rightEPSt18_Rb_tree_node_base>
  4046dc:	48 8b 7d e0          	mov    -0x20(%rbp),%rdi
  4046e0:	48 89 c6             	mov    %rax,%rsi
  4046e3:	e8 c8 ff ff ff       	call   4046b0 <_ZNSt8_Rb_treeINSt7__cxx1112basic_stringIcSt11char_traitsIcESaIcEEESt4pairIKS5_fESt10_Select1stIS8_ESt4lessIS5_ESaIS8_EE8_M_eraseEPSt13_Rb_tree_nodeIS8_E>
  4046e8:	48 8b 7d f0          	mov    -0x10(%rbp),%rdi
  4046ec:	e8 8f 00 00 00       	call   404780 <_ZNSt8_Rb_treeINSt7__cxx1112basic_stringIcSt11char_traitsIcESaIcEEESt4pairIKS5_fESt10_Select1stIS8_ESt4lessIS5_ESaIS8_EE7_S_leftEPSt18_Rb_tree_node_base>
  4046f1:	48 8b 7d e0          	mov    -0x20(%rbp),%rdi
  4046f5:	48 89 45 e8          	mov    %rax,-0x18(%rbp)
  4046f9:	48 8b 75 f0          	mov    -0x10(%rbp),%rsi
  4046fd:	e8 9e 00 00 00       	call   4047a0 <_ZNSt8_Rb_treeINSt7__cxx1112basic_stringIcSt11char_traitsIcESaIcEEESt4pairIKS5_fESt10_Select1stIS8_ESt4lessIS5_ESaIS8_EE12_M_drop_nodeEPSt13_Rb_tree_nodeIS8_E>
  404702:	48 8b 45 e8          	mov    -0x18(%rbp),%rax
  404706:	48 89 45 f0          	mov    %rax,-0x10(%rbp)
  40470a:	e9 b9 ff ff ff       	jmp    4046c8 <_ZNSt8_Rb_treeINSt7__cxx1112basic_stringIcSt11char_traitsIcESaIcEEESt4pairIKS5_fESt10_Select1stIS8_ESt4lessIS5_ESaIS8_EE8_M_eraseEPSt13_Rb_tree_nodeIS8_E+0x18>
  40470f:	48 83 c4 20          	add    $0x20,%rsp
  404713:	5d                   	pop    %rbp
  404714:	c3                   	ret    
  404715:	66 2e 0f 1f 84 00 00 	cs nopw 0x0(%rax,%rax,1)
  40471c:	00 00 00 
  40471f:	90                   	nop

0000000000404720 <_ZNSt8_Rb_treeINSt7__cxx1112basic_stringIcSt11char_traitsIcESaIcEEESt4pairIKS5_fESt10_Select1stIS8_ESt4lessIS5_ESaIS8_EE8_M_beginEv>:
  404720:	55                   	push   %rbp
  404721:	48 89 e5             	mov    %rsp,%rbp
  404724:	48 83 ec 10          	sub    $0x10,%rsp
  404728:	48 89 7d f8          	mov    %rdi,-0x8(%rbp)
  40472c:	48 8b 7d f8          	mov    -0x8(%rbp),%rdi
  404730:	e8 cb 02 00 00       	call   404a00 <_ZNKSt8_Rb_treeINSt7__cxx1112basic_stringIcSt11char_traitsIcESaIcEEESt4pairIKS5_fESt10_Select1stIS8_ESt4lessIS5_ESaIS8_EE9_M_mbeginEv>
  404735:	48 83 c4 10          	add    $0x10,%rsp
  404739:	5d                   	pop    %rbp
  40473a:	c3                   	ret    
  40473b:	0f 1f 44 00 00       	nopl   0x0(%rax,%rax,1)

0000000000404740 <_ZNSt8_Rb_treeINSt7__cxx1112basic_stringIcSt11char_traitsIcESaIcEEESt4pairIKS5_fESt10_Select1stIS8_ESt4lessIS5_ESaIS8_EE13_Rb_tree_implISC_Lb0EED2Ev>:
  404740:	55                   	push   %rbp
  404741:	48 89 e5             	mov    %rsp,%rbp
  404744:	48 83 ec 10          	sub    $0x10,%rsp
  404748:	48 89 7d f8          	mov    %rdi,-0x8(%rbp)
  40474c:	48 8b 7d f8          	mov    -0x8(%rbp),%rdi
  404750:	e8 cb 02 00 00       	call   404a20 <_ZNSaISt13_Rb_tree_nodeISt4pairIKNSt7__cxx1112basic_stringIcSt11char_traitsIcESaIcEEEfEEED2Ev>
  404755:	48 83 c4 10          	add    $0x10,%rsp
  404759:	5d                   	pop    %rbp
  40475a:	c3                   	ret    
  40475b:	0f 1f 44 00 00       	nopl   0x0(%rax,%rax,1)

0000000000404760 <_ZNSt8_Rb_treeINSt7__cxx1112basic_stringIcSt11char_traitsIcESaIcEEESt4pairIKS5_fESt10_Select1stIS8_ESt4lessIS5_ESaIS8_EE8_S_rightEPSt18_Rb_tree_node_base>:
  404760:	55                   	push   %rbp
  404761:	48 89 e5             	mov    %rsp,%rbp
  404764:	48 89 7d f8          	mov    %rdi,-0x8(%rbp)
  404768:	48 8b 45 f8          	mov    -0x8(%rbp),%rax
  40476c:	48 8b 40 18          	mov    0x18(%rax),%rax
  404770:	5d                   	pop    %rbp
  404771:	c3                   	ret    
  404772:	66 2e 0f 1f 84 00 00 	cs nopw 0x0(%rax,%rax,1)
  404779:	00 00 00 
  40477c:	0f 1f 40 00          	nopl   0x0(%rax)

0000000000404780 <_ZNSt8_Rb_treeINSt7__cxx1112basic_stringIcSt11char_traitsIcESaIcEEESt4pairIKS5_fESt10_Select1stIS8_ESt4lessIS5_ESaIS8_EE7_S_leftEPSt18_Rb_tree_node_base>:
  404780:	55                   	push   %rbp
  404781:	48 89 e5             	mov    %rsp,%rbp
  404784:	48 89 7d f8          	mov    %rdi,-0x8(%rbp)
  404788:	48 8b 45 f8          	mov    -0x8(%rbp),%rax
  40478c:	48 8b 40 10          	mov    0x10(%rax),%rax
  404790:	5d                   	pop    %rbp
  404791:	c3                   	ret    
  404792:	66 2e 0f 1f 84 00 00 	cs nopw 0x0(%rax,%rax,1)
  404799:	00 00 00 
  40479c:	0f 1f 40 00          	nopl   0x0(%rax)

00000000004047a0 <_ZNSt8_Rb_treeINSt7__cxx1112basic_stringIcSt11char_traitsIcESaIcEEESt4pairIKS5_fESt10_Select1stIS8_ESt4lessIS5_ESaIS8_EE12_M_drop_nodeEPSt13_Rb_tree_nodeIS8_E>:
  4047a0:	55                   	push   %rbp
  4047a1:	48 89 e5             	mov    %rsp,%rbp
  4047a4:	48 83 ec 20          	sub    $0x20,%rsp
  4047a8:	48 89 7d f8          	mov    %rdi,-0x8(%rbp)
  4047ac:	48 89 75 f0          	mov    %rsi,-0x10(%rbp)
  4047b0:	48 8b 7d f8          	mov    -0x8(%rbp),%rdi
  4047b4:	48 89 7d e8          	mov    %rdi,-0x18(%rbp)
  4047b8:	48 8b 75 f0          	mov    -0x10(%rbp),%rsi
  4047bc:	e8 1f 00 00 00       	call   4047e0 <_ZNSt8_Rb_treeINSt7__cxx1112basic_stringIcSt11char_traitsIcESaIcEEESt4pairIKS5_fESt10_Select1stIS8_ESt4lessIS5_ESaIS8_EE15_M_destroy_nodeEPSt13_Rb_tree_nodeIS8_E>
  4047c1:	48 8b 7d e8          	mov    -0x18(%rbp),%rdi
  4047c5:	48 8b 75 f0          	mov    -0x10(%rbp),%rsi
  4047c9:	e8 92 00 00 00       	call   404860 <_ZNSt8_Rb_treeINSt7__cxx1112basic_stringIcSt11char_traitsIcESaIcEEESt4pairIKS5_fESt10_Select1stIS8_ESt4lessIS5_ESaIS8_EE11_M_put_nodeEPSt13_Rb_tree_nodeIS8_E>
  4047ce:	48 83 c4 20          	add    $0x20,%rsp
  4047d2:	5d                   	pop    %rbp
  4047d3:	c3                   	ret    
  4047d4:	66 2e 0f 1f 84 00 00 	cs nopw 0x0(%rax,%rax,1)
  4047db:	00 00 00 
  4047de:	66 90                	xchg   %ax,%ax

00000000004047e0 <_ZNSt8_Rb_treeINSt7__cxx1112basic_stringIcSt11char_traitsIcESaIcEEESt4pairIKS5_fESt10_Select1stIS8_ESt4lessIS5_ESaIS8_EE15_M_destroy_nodeEPSt13_Rb_tree_nodeIS8_E>:
  4047e0:	55                   	push   %rbp
  4047e1:	48 89 e5             	mov    %rsp,%rbp
  4047e4:	48 83 ec 40          	sub    $0x40,%rsp
  4047e8:	48 89 7d f8          	mov    %rdi,-0x8(%rbp)
  4047ec:	48 89 75 f0          	mov    %rsi,-0x10(%rbp)
  4047f0:	48 8b 75 f8          	mov    -0x8(%rbp),%rsi
  4047f4:	48 8d 7d e8          	lea    -0x18(%rbp),%rdi
  4047f8:	48 89 7d c8          	mov    %rdi,-0x38(%rbp)
  4047fc:	e8 8f 00 00 00       	call   404890 <_ZNKSt8_Rb_treeINSt7__cxx1112basic_stringIcSt11char_traitsIcESaIcEEESt4pairIKS5_fESt10_Select1stIS8_ESt4lessIS5_ESaIS8_EE13get_allocatorEv>
  404801:	48 8b 7d f0          	mov    -0x10(%rbp),%rdi
  404805:	e8 e6 00 00 00       	call   4048f0 <_ZNSt13_Rb_tree_nodeISt4pairIKNSt7__cxx1112basic_stringIcSt11char_traitsIcESaIcEEEfEE9_M_valptrEv>
  40480a:	48 89 c1             	mov    %rax,%rcx
  40480d:	48 89 4d d0          	mov    %rcx,-0x30(%rbp)
  404811:	e9 00 00 00 00       	jmp    404816 <_ZNSt8_Rb_treeINSt7__cxx1112basic_stringIcSt11char_traitsIcESaIcEEESt4pairIKS5_fESt10_Select1stIS8_ESt4lessIS5_ESaIS8_EE15_M_destroy_nodeEPSt13_Rb_tree_nodeIS8_E+0x36>
  404816:	48 8b 75 d0          	mov    -0x30(%rbp),%rsi
  40481a:	48 8b 7d c8          	mov    -0x38(%rbp),%rdi
  40481e:	e8 ad 00 00 00       	call   4048d0 <_ZNSt15__new_allocatorISt4pairIKNSt7__cxx1112basic_stringIcSt11char_traitsIcESaIcEEEfEE7destroyEPS8_>
  404823:	e9 00 00 00 00       	jmp    404828 <_ZNSt8_Rb_treeINSt7__cxx1112basic_stringIcSt11char_traitsIcESaIcEEESt4pairIKS5_fESt10_Select1stIS8_ESt4lessIS5_ESaIS8_EE15_M_destroy_nodeEPSt13_Rb_tree_nodeIS8_E+0x48>
  404828:	48 8d 7d e8          	lea    -0x18(%rbp),%rdi
  40482c:	e8 df 00 00 00       	call   404910 <_ZNSaISt4pairIKNSt7__cxx1112basic_stringIcSt11char_traitsIcESaIcEEEfEED2Ev>
  404831:	48 83 c4 40          	add    $0x40,%rsp
  404835:	5d                   	pop    %rbp
  404836:	c3                   	ret    
  404837:	48 89 c1             	mov    %rax,%rcx
  40483a:	89 d0                	mov    %edx,%eax
  40483c:	48 89 4d e0          	mov    %rcx,-0x20(%rbp)
  404840:	89 45 dc             	mov    %eax,-0x24(%rbp)
  404843:	48 8d 7d e8          	lea    -0x18(%rbp),%rdi
  404847:	e8 c4 00 00 00       	call   404910 <_ZNSaISt4pairIKNSt7__cxx1112basic_stringIcSt11char_traitsIcESaIcEEEfEED2Ev>
  40484c:	48 8b 7d e0          	mov    -0x20(%rbp),%rdi
  404850:	e8 cb da ff ff       	call   402320 <_Unwind_Resume@plt>
  404855:	66 2e 0f 1f 84 00 00 	cs nopw 0x0(%rax,%rax,1)
  40485c:	00 00 00 
  40485f:	90                   	nop

0000000000404860 <_ZNSt8_Rb_treeINSt7__cxx1112basic_stringIcSt11char_traitsIcESaIcEEESt4pairIKS5_fESt10_Select1stIS8_ESt4lessIS5_ESaIS8_EE11_M_put_nodeEPSt13_Rb_tree_nodeIS8_E>:
  404860:	55                   	push   %rbp
  404861:	48 89 e5             	mov    %rsp,%rbp
  404864:	48 83 ec 10          	sub    $0x10,%rsp
  404868:	48 89 7d f8          	mov    %rdi,-0x8(%rbp)
  40486c:	48 89 75 f0          	mov    %rsi,-0x10(%rbp)
  404870:	48 8b 7d f8          	mov    -0x8(%rbp),%rdi
  404874:	e8 47 01 00 00       	call   4049c0 <_ZNSt8_Rb_treeINSt7__cxx1112basic_stringIcSt11char_traitsIcESaIcEEESt4pairIKS5_fESt10_Select1stIS8_ESt4lessIS5_ESaIS8_EE21_M_get_Node_allocatorEv>
  404879:	48 89 c7             	mov    %rax,%rdi
  40487c:	48 8b 75 f0          	mov    -0x10(%rbp),%rsi
  404880:	ba 01 00 00 00       	mov    $0x1,%edx
  404885:	e8 06 01 00 00       	call   404990 <_ZN9__gnu_cxx14__alloc_traitsISaISt13_Rb_tree_nodeISt4pairIKNSt7__cxx1112basic_stringIcSt11char_traitsIcESaIcEEEfEEESB_E10deallocateERSC_PSB_m>
  40488a:	48 83 c4 10          	add    $0x10,%rsp
  40488e:	5d                   	pop    %rbp
  40488f:	c3                   	ret    

0000000000404890 <_ZNKSt8_Rb_treeINSt7__cxx1112basic_stringIcSt11char_traitsIcESaIcEEESt4pairIKS5_fESt10_Select1stIS8_ESt4lessIS5_ESaIS8_EE13get_allocatorEv>:
  404890:	55                   	push   %rbp
  404891:	48 89 e5             	mov    %rsp,%rbp
  404894:	48 83 ec 20          	sub    $0x20,%rsp
  404898:	48 89 7d e0          	mov    %rdi,-0x20(%rbp)
  40489c:	48 89 f8             	mov    %rdi,%rax
  40489f:	48 89 45 e8          	mov    %rax,-0x18(%rbp)
  4048a3:	48 89 7d f8          	mov    %rdi,-0x8(%rbp)
  4048a7:	48 89 75 f0          	mov    %rsi,-0x10(%rbp)
  4048ab:	48 8b 7d f0          	mov    -0x10(%rbp),%rdi
  4048af:	e8 7c 00 00 00       	call   404930 <_ZNKSt8_Rb_treeINSt7__cxx1112basic_stringIcSt11char_traitsIcESaIcEEESt4pairIKS5_fESt10_Select1stIS8_ESt4lessIS5_ESaIS8_EE21_M_get_Node_allocatorEv>
  4048b4:	48 8b 7d e0          	mov    -0x20(%rbp),%rdi
  4048b8:	48 89 c6             	mov    %rax,%rsi
  4048bb:	e8 80 00 00 00       	call   404940 <_ZNSaISt4pairIKNSt7__cxx1112basic_stringIcSt11char_traitsIcESaIcEEEfEEC2ISt13_Rb_tree_nodeIS7_EEERKSaIT_E>
  4048c0:	48 8b 45 e8          	mov    -0x18(%rbp),%rax
  4048c4:	48 83 c4 20          	add    $0x20,%rsp
  4048c8:	5d                   	pop    %rbp
  4048c9:	c3                   	ret    
  4048ca:	66 0f 1f 44 00 00    	nopw   0x0(%rax,%rax,1)

00000000004048d0 <_ZNSt15__new_allocatorISt4pairIKNSt7__cxx1112basic_stringIcSt11char_traitsIcESaIcEEEfEE7destroyEPS8_>:
  4048d0:	55                   	push   %rbp
  4048d1:	48 89 e5             	mov    %rsp,%rbp
  4048d4:	48 83 ec 10          	sub    $0x10,%rsp
  4048d8:	48 89 7d f8          	mov    %rdi,-0x8(%rbp)
  4048dc:	48 89 75 f0          	mov    %rsi,-0x10(%rbp)
  4048e0:	48 8b 7d f0          	mov    -0x10(%rbp),%rdi
  4048e4:	e8 d7 fa ff ff       	call   4043c0 <_ZNSt4pairIKNSt7__cxx1112basic_stringIcSt11char_traitsIcESaIcEEEfED2Ev>
  4048e9:	48 83 c4 10          	add    $0x10,%rsp
  4048ed:	5d                   	pop    %rbp
  4048ee:	c3                   	ret    
  4048ef:	90                   	nop

00000000004048f0 <_ZNSt13_Rb_tree_nodeISt4pairIKNSt7__cxx1112basic_stringIcSt11char_traitsIcESaIcEEEfEE9_M_valptrEv>:
  4048f0:	55                   	push   %rbp
  4048f1:	48 89 e5             	mov    %rsp,%rbp
  4048f4:	48 83 ec 10          	sub    $0x10,%rsp
  4048f8:	48 89 7d f8          	mov    %rdi,-0x8(%rbp)
  4048fc:	48 8b 7d f8          	mov    -0x8(%rbp),%rdi
  404900:	48 83 c7 20          	add    $0x20,%rdi
  404904:	e8 67 00 00 00       	call   404970 <_ZSt11__addressofISt4pairIKNSt7__cxx1112basic_stringIcSt11char_traitsIcESaIcEEEfEEPT_RS9_>
  404909:	48 83 c4 10          	add    $0x10,%rsp
  40490d:	5d                   	pop    %rbp
  40490e:	c3                   	ret    
  40490f:	90                   	nop

0000000000404910 <_ZNSaISt4pairIKNSt7__cxx1112basic_stringIcSt11char_traitsIcESaIcEEEfEED2Ev>:
  404910:	55                   	push   %rbp
  404911:	48 89 e5             	mov    %rsp,%rbp
  404914:	48 83 ec 10          	sub    $0x10,%rsp
  404918:	48 89 7d f8          	mov    %rdi,-0x8(%rbp)
  40491c:	48 8b 7d f8          	mov    -0x8(%rbp),%rdi
  404920:	e8 5b 00 00 00       	call   404980 <_ZNSt15__new_allocatorISt4pairIKNSt7__cxx1112basic_stringIcSt11char_traitsIcESaIcEEEfEED2Ev>
  404925:	48 83 c4 10          	add    $0x10,%rsp
  404929:	5d                   	pop    %rbp
  40492a:	c3                   	ret    
  40492b:	0f 1f 44 00 00       	nopl   0x0(%rax,%rax,1)

0000000000404930 <_ZNKSt8_Rb_treeINSt7__cxx1112basic_stringIcSt11char_traitsIcESaIcEEESt4pairIKS5_fESt10_Select1stIS8_ESt4lessIS5_ESaIS8_EE21_M_get_Node_allocatorEv>:
  404930:	55                   	push   %rbp
  404931:	48 89 e5             	mov    %rsp,%rbp
  404934:	48 89 7d f8          	mov    %rdi,-0x8(%rbp)
  404938:	48 8b 45 f8          	mov    -0x8(%rbp),%rax
  40493c:	5d                   	pop    %rbp
  40493d:	c3                   	ret    
  40493e:	66 90                	xchg   %ax,%ax

0000000000404940 <_ZNSaISt4pairIKNSt7__cxx1112basic_stringIcSt11char_traitsIcESaIcEEEfEEC2ISt13_Rb_tree_nodeIS7_EEERKSaIT_E>:
  404940:	55                   	push   %rbp
  404941:	48 89 e5             	mov    %rsp,%rbp
  404944:	48 83 ec 10          	sub    $0x10,%rsp
  404948:	48 89 7d f8          	mov    %rdi,-0x8(%rbp)
  40494c:	48 89 75 f0          	mov    %rsi,-0x10(%rbp)
  404950:	48 8b 7d f8          	mov    -0x8(%rbp),%rdi
  404954:	e8 07 00 00 00       	call   404960 <_ZNSt15__new_allocatorISt4pairIKNSt7__cxx1112basic_stringIcSt11char_traitsIcESaIcEEEfEEC2Ev>
  404959:	48 83 c4 10          	add    $0x10,%rsp
  40495d:	5d                   	pop    %rbp
  40495e:	c3                   	ret    
  40495f:	90                   	nop

0000000000404960 <_ZNSt15__new_allocatorISt4pairIKNSt7__cxx1112basic_stringIcSt11char_traitsIcESaIcEEEfEEC2Ev>:
  404960:	55                   	push   %rbp
  404961:	48 89 e5             	mov    %rsp,%rbp
  404964:	48 89 7d f8          	mov    %rdi,-0x8(%rbp)
  404968:	5d                   	pop    %rbp
  404969:	c3                   	ret    
  40496a:	66 0f 1f 44 00 00    	nopw   0x0(%rax,%rax,1)

0000000000404970 <_ZSt11__addressofISt4pairIKNSt7__cxx1112basic_stringIcSt11char_traitsIcESaIcEEEfEEPT_RS9_>:
  404970:	55                   	push   %rbp
  404971:	48 89 e5             	mov    %rsp,%rbp
  404974:	48 89 7d f8          	mov    %rdi,-0x8(%rbp)
  404978:	48 8b 45 f8          	mov    -0x8(%rbp),%rax
  40497c:	5d                   	pop    %rbp
  40497d:	c3                   	ret    
  40497e:	66 90                	xchg   %ax,%ax

0000000000404980 <_ZNSt15__new_allocatorISt4pairIKNSt7__cxx1112basic_stringIcSt11char_traitsIcESaIcEEEfEED2Ev>:
  404980:	55                   	push   %rbp
  404981:	48 89 e5             	mov    %rsp,%rbp
  404984:	48 89 7d f8          	mov    %rdi,-0x8(%rbp)
  404988:	5d                   	pop    %rbp
  404989:	c3                   	ret    
  40498a:	66 0f 1f 44 00 00    	nopw   0x0(%rax,%rax,1)

0000000000404990 <_ZN9__gnu_cxx14__alloc_traitsISaISt13_Rb_tree_nodeISt4pairIKNSt7__cxx1112basic_stringIcSt11char_traitsIcESaIcEEEfEEESB_E10deallocateERSC_PSB_m>:
  404990:	55                   	push   %rbp
  404991:	48 89 e5             	mov    %rsp,%rbp
  404994:	48 83 ec 20          	sub    $0x20,%rsp
  404998:	48 89 7d f8          	mov    %rdi,-0x8(%rbp)
  40499c:	48 89 75 f0          	mov    %rsi,-0x10(%rbp)
  4049a0:	48 89 55 e8          	mov    %rdx,-0x18(%rbp)
  4049a4:	48 8b 7d f8          	mov    -0x8(%rbp),%rdi
  4049a8:	48 8b 75 f0          	mov    -0x10(%rbp),%rsi
  4049ac:	48 8b 55 e8          	mov    -0x18(%rbp),%rdx
  4049b0:	e8 1b 00 00 00       	call   4049d0 <_ZNSt15__new_allocatorISt13_Rb_tree_nodeISt4pairIKNSt7__cxx1112basic_stringIcSt11char_traitsIcESaIcEEEfEEE10deallocateEPSA_m>
  4049b5:	48 83 c4 20          	add    $0x20,%rsp
  4049b9:	5d                   	pop    %rbp
  4049ba:	c3                   	ret    
  4049bb:	0f 1f 44 00 00       	nopl   0x0(%rax,%rax,1)

00000000004049c0 <_ZNSt8_Rb_treeINSt7__cxx1112basic_stringIcSt11char_traitsIcESaIcEEESt4pairIKS5_fESt10_Select1stIS8_ESt4lessIS5_ESaIS8_EE21_M_get_Node_allocatorEv>:
  4049c0:	55                   	push   %rbp
  4049c1:	48 89 e5             	mov    %rsp,%rbp
  4049c4:	48 89 7d f8          	mov    %rdi,-0x8(%rbp)
  4049c8:	48 8b 45 f8          	mov    -0x8(%rbp),%rax
  4049cc:	5d                   	pop    %rbp
  4049cd:	c3                   	ret    
  4049ce:	66 90                	xchg   %ax,%ax

00000000004049d0 <_ZNSt15__new_allocatorISt13_Rb_tree_nodeISt4pairIKNSt7__cxx1112basic_stringIcSt11char_traitsIcESaIcEEEfEEE10deallocateEPSA_m>:
  4049d0:	55                   	push   %rbp
  4049d1:	48 89 e5             	mov    %rsp,%rbp
  4049d4:	48 83 ec 20          	sub    $0x20,%rsp
  4049d8:	48 89 7d f8          	mov    %rdi,-0x8(%rbp)
  4049dc:	48 89 75 f0          	mov    %rsi,-0x10(%rbp)
  4049e0:	48 89 55 e8          	mov    %rdx,-0x18(%rbp)
  4049e4:	48 8b 7d f0          	mov    -0x10(%rbp),%rdi
  4049e8:	e8 c3 d7 ff ff       	call   4021b0 <_ZdlPv@plt>
  4049ed:	48 83 c4 20          	add    $0x20,%rsp
  4049f1:	5d                   	pop    %rbp
  4049f2:	c3                   	ret    
  4049f3:	66 2e 0f 1f 84 00 00 	cs nopw 0x0(%rax,%rax,1)
  4049fa:	00 00 00 
  4049fd:	0f 1f 00             	nopl   (%rax)

0000000000404a00 <_ZNKSt8_Rb_treeINSt7__cxx1112basic_stringIcSt11char_traitsIcESaIcEEESt4pairIKS5_fESt10_Select1stIS8_ESt4lessIS5_ESaIS8_EE9_M_mbeginEv>:
  404a00:	55                   	push   %rbp
  404a01:	48 89 e5             	mov    %rsp,%rbp
  404a04:	48 89 7d f8          	mov    %rdi,-0x8(%rbp)
  404a08:	48 8b 45 f8          	mov    -0x8(%rbp),%rax
  404a0c:	48 8b 40 10          	mov    0x10(%rax),%rax
  404a10:	5d                   	pop    %rbp
  404a11:	c3                   	ret    
  404a12:	66 2e 0f 1f 84 00 00 	cs nopw 0x0(%rax,%rax,1)
  404a19:	00 00 00 
  404a1c:	0f 1f 40 00          	nopl   0x0(%rax)

0000000000404a20 <_ZNSaISt13_Rb_tree_nodeISt4pairIKNSt7__cxx1112basic_stringIcSt11char_traitsIcESaIcEEEfEEED2Ev>:
  404a20:	55                   	push   %rbp
  404a21:	48 89 e5             	mov    %rsp,%rbp
  404a24:	48 83 ec 10          	sub    $0x10,%rsp
  404a28:	48 89 7d f8          	mov    %rdi,-0x8(%rbp)
  404a2c:	48 8b 7d f8          	mov    -0x8(%rbp),%rdi
  404a30:	e8 0b 00 00 00       	call   404a40 <_ZNSt15__new_allocatorISt13_Rb_tree_nodeISt4pairIKNSt7__cxx1112basic_stringIcSt11char_traitsIcESaIcEEEfEEED2Ev>
  404a35:	48 83 c4 10          	add    $0x10,%rsp
  404a39:	5d                   	pop    %rbp
  404a3a:	c3                   	ret    
  404a3b:	0f 1f 44 00 00       	nopl   0x0(%rax,%rax,1)

0000000000404a40 <_ZNSt15__new_allocatorISt13_Rb_tree_nodeISt4pairIKNSt7__cxx1112basic_stringIcSt11char_traitsIcESaIcEEEfEEED2Ev>:
  404a40:	55                   	push   %rbp
  404a41:	48 89 e5             	mov    %rsp,%rbp
  404a44:	48 89 7d f8          	mov    %rdi,-0x8(%rbp)
  404a48:	5d                   	pop    %rbp
  404a49:	c3                   	ret    
  404a4a:	66 0f 1f 44 00 00    	nopw   0x0(%rax,%rax,1)

0000000000404a50 <_ZNSt8_Rb_treeINSt7__cxx1112basic_stringIcSt11char_traitsIcESaIcEEESt4pairIKS5_fESt10_Select1stIS8_ESt4lessIS5_ESaIS8_EEC2Ev>:
  404a50:	55                   	push   %rbp
  404a51:	48 89 e5             	mov    %rsp,%rbp
  404a54:	48 83 ec 10          	sub    $0x10,%rsp
  404a58:	48 89 7d f8          	mov    %rdi,-0x8(%rbp)
  404a5c:	48 8b 7d f8          	mov    -0x8(%rbp),%rdi
  404a60:	e8 0b 00 00 00       	call   404a70 <_ZNSt8_Rb_treeINSt7__cxx1112basic_stringIcSt11char_traitsIcESaIcEEESt4pairIKS5_fESt10_Select1stIS8_ESt4lessIS5_ESaIS8_EE13_Rb_tree_implISC_Lb0EEC2Ev>
  404a65:	48 83 c4 10          	add    $0x10,%rsp
  404a69:	5d                   	pop    %rbp
  404a6a:	c3                   	ret    
  404a6b:	0f 1f 44 00 00       	nopl   0x0(%rax,%rax,1)

0000000000404a70 <_ZNSt8_Rb_treeINSt7__cxx1112basic_stringIcSt11char_traitsIcESaIcEEESt4pairIKS5_fESt10_Select1stIS8_ESt4lessIS5_ESaIS8_EE13_Rb_tree_implISC_Lb0EEC2Ev>:
  404a70:	55                   	push   %rbp
  404a71:	48 89 e5             	mov    %rsp,%rbp
  404a74:	48 83 ec 20          	sub    $0x20,%rsp
  404a78:	48 89 7d f8          	mov    %rdi,-0x8(%rbp)
  404a7c:	48 8b 7d f8          	mov    -0x8(%rbp),%rdi
  404a80:	48 89 7d e0          	mov    %rdi,-0x20(%rbp)
  404a84:	e8 47 00 00 00       	call   404ad0 <_ZNSaISt13_Rb_tree_nodeISt4pairIKNSt7__cxx1112basic_stringIcSt11char_traitsIcESaIcEEEfEEEC2Ev>
  404a89:	48 8b 7d e0          	mov    -0x20(%rbp),%rdi
  404a8d:	e8 5e 00 00 00       	call   404af0 <_ZNSt20_Rb_tree_key_compareISt4lessINSt7__cxx1112basic_stringIcSt11char_traitsIcESaIcEEEEEC2Ev>
  404a92:	e9 00 00 00 00       	jmp    404a97 <_ZNSt8_Rb_treeINSt7__cxx1112basic_stringIcSt11char_traitsIcESaIcEEESt4pairIKS5_fESt10_Select1stIS8_ESt4lessIS5_ESaIS8_EE13_Rb_tree_implISC_Lb0EEC2Ev+0x27>
  404a97:	48 8b 7d e0          	mov    -0x20(%rbp),%rdi
  404a9b:	48 83 c7 08          	add    $0x8,%rdi
  404a9f:	e8 5c 00 00 00       	call   404b00 <_ZNSt15_Rb_tree_headerC2Ev>
  404aa4:	e9 00 00 00 00       	jmp    404aa9 <_ZNSt8_Rb_treeINSt7__cxx1112basic_stringIcSt11char_traitsIcESaIcEEESt4pairIKS5_fESt10_Select1stIS8_ESt4lessIS5_ESaIS8_EE13_Rb_tree_implISC_Lb0EEC2Ev+0x39>
  404aa9:	48 83 c4 20          	add    $0x20,%rsp
  404aad:	5d                   	pop    %rbp
  404aae:	c3                   	ret    
  404aaf:	48 8b 7d e0          	mov    -0x20(%rbp),%rdi
  404ab3:	48 89 c1             	mov    %rax,%rcx
  404ab6:	89 d0                	mov    %edx,%eax
  404ab8:	48 89 4d f0          	mov    %rcx,-0x10(%rbp)
  404abc:	89 45 ec             	mov    %eax,-0x14(%rbp)
  404abf:	e8 5c ff ff ff       	call   404a20 <_ZNSaISt13_Rb_tree_nodeISt4pairIKNSt7__cxx1112basic_stringIcSt11char_traitsIcESaIcEEEfEEED2Ev>
  404ac4:	48 8b 7d f0          	mov    -0x10(%rbp),%rdi
  404ac8:	e8 53 d8 ff ff       	call   402320 <_Unwind_Resume@plt>
  404acd:	0f 1f 00             	nopl   (%rax)

0000000000404ad0 <_ZNSaISt13_Rb_tree_nodeISt4pairIKNSt7__cxx1112basic_stringIcSt11char_traitsIcESaIcEEEfEEEC2Ev>:
  404ad0:	55                   	push   %rbp
  404ad1:	48 89 e5             	mov    %rsp,%rbp
  404ad4:	48 83 ec 10          	sub    $0x10,%rsp
  404ad8:	48 89 7d f8          	mov    %rdi,-0x8(%rbp)
  404adc:	48 8b 7d f8          	mov    -0x8(%rbp),%rdi
  404ae0:	e8 4b 00 00 00       	call   404b30 <_ZNSt15__new_allocatorISt13_Rb_tree_nodeISt4pairIKNSt7__cxx1112basic_stringIcSt11char_traitsIcESaIcEEEfEEEC2Ev>
  404ae5:	48 83 c4 10          	add    $0x10,%rsp
  404ae9:	5d                   	pop    %rbp
  404aea:	c3                   	ret    
  404aeb:	0f 1f 44 00 00       	nopl   0x0(%rax,%rax,1)

0000000000404af0 <_ZNSt20_Rb_tree_key_compareISt4lessINSt7__cxx1112basic_stringIcSt11char_traitsIcESaIcEEEEEC2Ev>:
  404af0:	55                   	push   %rbp
  404af1:	48 89 e5             	mov    %rsp,%rbp
  404af4:	48 89 7d f8          	mov    %rdi,-0x8(%rbp)
  404af8:	5d                   	pop    %rbp
  404af9:	c3                   	ret    
  404afa:	66 0f 1f 44 00 00    	nopw   0x0(%rax,%rax,1)

0000000000404b00 <_ZNSt15_Rb_tree_headerC2Ev>:
  404b00:	55                   	push   %rbp
  404b01:	48 89 e5             	mov    %rsp,%rbp
  404b04:	48 83 ec 10          	sub    $0x10,%rsp
  404b08:	48 89 7d f8          	mov    %rdi,-0x8(%rbp)
  404b0c:	48 8b 7d f8          	mov    -0x8(%rbp),%rdi
  404b10:	c7 07 00 00 00 00    	movl   $0x0,(%rdi)
  404b16:	e8 25 00 00 00       	call   404b40 <_ZNSt15_Rb_tree_header8_M_resetEv>
  404b1b:	48 83 c4 10          	add    $0x10,%rsp
  404b1f:	5d                   	pop    %rbp
  404b20:	c3                   	ret    
  404b21:	66 2e 0f 1f 84 00 00 	cs nopw 0x0(%rax,%rax,1)
  404b28:	00 00 00 
  404b2b:	0f 1f 44 00 00       	nopl   0x0(%rax,%rax,1)

0000000000404b30 <_ZNSt15__new_allocatorISt13_Rb_tree_nodeISt4pairIKNSt7__cxx1112basic_stringIcSt11char_traitsIcESaIcEEEfEEEC2Ev>:
  404b30:	55                   	push   %rbp
  404b31:	48 89 e5             	mov    %rsp,%rbp
  404b34:	48 89 7d f8          	mov    %rdi,-0x8(%rbp)
  404b38:	5d                   	pop    %rbp
  404b39:	c3                   	ret    
  404b3a:	66 0f 1f 44 00 00    	nopw   0x0(%rax,%rax,1)

0000000000404b40 <_ZNSt15_Rb_tree_header8_M_resetEv>:
  404b40:	55                   	push   %rbp
  404b41:	48 89 e5             	mov    %rsp,%rbp
  404b44:	48 89 7d f8          	mov    %rdi,-0x8(%rbp)
  404b48:	48 8b 45 f8          	mov    -0x8(%rbp),%rax
  404b4c:	48 c7 40 08 00 00 00 	movq   $0x0,0x8(%rax)
  404b53:	00 
  404b54:	48 89 40 10          	mov    %rax,0x10(%rax)
  404b58:	48 89 40 18          	mov    %rax,0x18(%rax)
  404b5c:	48 c7 40 20 00 00 00 	movq   $0x0,0x20(%rax)
  404b63:	00 
  404b64:	5d                   	pop    %rbp
  404b65:	c3                   	ret    
  404b66:	66 2e 0f 1f 84 00 00 	cs nopw 0x0(%rax,%rax,1)
  404b6d:	00 00 00 

0000000000404b70 <_ZNSt4pairINSt7__cxx1112basic_stringIcSt11char_traitsIcESaIcEEEfEC2ERKS5_RKf>:
  404b70:	55                   	push   %rbp
  404b71:	48 89 e5             	mov    %rsp,%rbp
  404b74:	48 83 ec 20          	sub    $0x20,%rsp
  404b78:	48 89 7d f8          	mov    %rdi,-0x8(%rbp)
  404b7c:	48 89 75 f0          	mov    %rsi,-0x10(%rbp)
  404b80:	48 89 55 e8          	mov    %rdx,-0x18(%rbp)
  404b84:	48 8b 7d f8          	mov    -0x8(%rbp),%rdi
  404b88:	48 89 7d e0          	mov    %rdi,-0x20(%rbp)
  404b8c:	48 8b 75 f0          	mov    -0x10(%rbp),%rsi
  404b90:	e8 5b d5 ff ff       	call   4020f0 <_ZNSt7__cxx1112basic_stringIcSt11char_traitsIcESaIcEEC1ERKS4_@plt>
  404b95:	48 8b 45 e0          	mov    -0x20(%rbp),%rax
  404b99:	48 8b 4d e8          	mov    -0x18(%rbp),%rcx
  404b9d:	f3 0f 10 01          	movss  (%rcx),%xmm0
  404ba1:	f3 0f 11 40 20       	movss  %xmm0,0x20(%rax)
  404ba6:	48 83 c4 20          	add    $0x20,%rsp
  404baa:	5d                   	pop    %rbp
  404bab:	c3                   	ret    
  404bac:	0f 1f 40 00          	nopl   0x0(%rax)

0000000000404bb0 <_ZNSt8_Rb_treeINSt7__cxx1112basic_stringIcSt11char_traitsIcESaIcEEESt4pairIKS5_fESt10_Select1stIS8_ESt4lessIS5_ESaIS8_EE16_M_insert_uniqueERKS8_>:
  404bb0:	55                   	push   %rbp
  404bb1:	48 89 e5             	mov    %rsp,%rbp
  404bb4:	48 83 ec 70          	sub    $0x70,%rsp
  404bb8:	48 89 7d e8          	mov    %rdi,-0x18(%rbp)
  404bbc:	48 89 75 e0          	mov    %rsi,-0x20(%rbp)
  404bc0:	48 8b 45 e8          	mov    -0x18(%rbp),%rax
  404bc4:	48 89 45 98          	mov    %rax,-0x68(%rbp)
  404bc8:	48 8b 75 e0          	mov    -0x20(%rbp),%rsi
  404bcc:	48 8d 7d c8          	lea    -0x38(%rbp),%rdi
  404bd0:	e8 3b 02 00 00       	call   404e10 <_ZNKSt10_Select1stISt4pairIKNSt7__cxx1112basic_stringIcSt11char_traitsIcESaIcEEEfEEclERKS8_>
  404bd5:	48 8b 7d 98          	mov    -0x68(%rbp),%rdi
  404bd9:	48 89 c6             	mov    %rax,%rsi
  404bdc:	e8 8f 00 00 00       	call   404c70 <_ZNSt8_Rb_treeINSt7__cxx1112basic_stringIcSt11char_traitsIcESaIcEEESt4pairIKS5_fESt10_Select1stIS8_ESt4lessIS5_ESaIS8_EE24_M_get_insert_unique_posERS7_>
  404be1:	48 89 45 d0          	mov    %rax,-0x30(%rbp)
  404be5:	48 89 55 d8          	mov    %rdx,-0x28(%rbp)
  404be9:	48 83 7d d8 00       	cmpq   $0x0,-0x28(%rbp)
  404bee:	0f 84 44 00 00 00    	je     404c38 <_ZNSt8_Rb_treeINSt7__cxx1112basic_stringIcSt11char_traitsIcESaIcEEESt4pairIKS5_fESt10_Select1stIS8_ESt4lessIS5_ESaIS8_EE16_M_insert_uniqueERKS8_+0x88>
  404bf4:	48 8b 75 98          	mov    -0x68(%rbp),%rsi
  404bf8:	48 8d 7d c0          	lea    -0x40(%rbp),%rdi
  404bfc:	e8 2f 02 00 00       	call   404e30 <_ZNSt8_Rb_treeINSt7__cxx1112basic_stringIcSt11char_traitsIcESaIcEEESt4pairIKS5_fESt10_Select1stIS8_ESt4lessIS5_ESaIS8_EE11_Alloc_nodeC2ERSE_>
  404c01:	48 8b 7d 98          	mov    -0x68(%rbp),%rdi
  404c05:	48 8b 75 d0          	mov    -0x30(%rbp),%rsi
  404c09:	48 8b 55 d8          	mov    -0x28(%rbp),%rdx
  404c0d:	48 8b 4d e0          	mov    -0x20(%rbp),%rcx
  404c11:	4c 8d 45 c0          	lea    -0x40(%rbp),%r8
  404c15:	e8 36 02 00 00       	call   404e50 <_ZNSt8_Rb_treeINSt7__cxx1112basic_stringIcSt11char_traitsIcESaIcEEESt4pairIKS5_fESt10_Select1stIS8_ESt4lessIS5_ESaIS8_EE10_M_insert_INSE_11_Alloc_nodeEEESt17_Rb_tree_iteratorIS8_EPSt18_Rb_tree_node_baseSK_RKS8_RT_>
  404c1a:	48 89 45 b8          	mov    %rax,-0x48(%rbp)
  404c1e:	c6 45 b7 01          	movb   $0x1,-0x49(%rbp)
  404c22:	48 8d 7d f0          	lea    -0x10(%rbp),%rdi
  404c26:	48 8d 75 b8          	lea    -0x48(%rbp),%rsi
  404c2a:	48 8d 55 b7          	lea    -0x49(%rbp),%rdx
  404c2e:	e8 0d 03 00 00       	call   404f40 <_ZNSt4pairISt17_Rb_tree_iteratorIS_IKNSt7__cxx1112basic_stringIcSt11char_traitsIcESaIcEEEfEEbEC2ERKS9_RKb>
  404c33:	e9 22 00 00 00       	jmp    404c5a <_ZNSt8_Rb_treeINSt7__cxx1112basic_stringIcSt11char_traitsIcESaIcEEESt4pairIKS5_fESt10_Select1stIS8_ESt4lessIS5_ESaIS8_EE16_M_insert_uniqueERKS8_+0xaa>
  404c38:	48 8b 75 d0          	mov    -0x30(%rbp),%rsi
  404c3c:	48 8d 7d a8          	lea    -0x58(%rbp),%rdi
  404c40:	e8 2b 03 00 00       	call   404f70 <_ZNSt17_Rb_tree_iteratorISt4pairIKNSt7__cxx1112basic_stringIcSt11char_traitsIcESaIcEEEfEEC2EPSt18_Rb_tree_node_base>
  404c45:	c6 45 a7 00          	movb   $0x0,-0x59(%rbp)
  404c49:	48 8d 7d f0          	lea    -0x10(%rbp),%rdi
  404c4d:	48 8d 75 a8          	lea    -0x58(%rbp),%rsi
  404c51:	48 8d 55 a7          	lea    -0x59(%rbp),%rdx
  404c55:	e8 e6 02 00 00       	call   404f40 <_ZNSt4pairISt17_Rb_tree_iteratorIS_IKNSt7__cxx1112basic_stringIcSt11char_traitsIcESaIcEEEfEEbEC2ERKS9_RKb>
  404c5a:	48 8b 45 f0          	mov    -0x10(%rbp),%rax
  404c5e:	8a 55 f8             	mov    -0x8(%rbp),%dl
  404c61:	48 83 c4 70          	add    $0x70,%rsp
  404c65:	5d                   	pop    %rbp
  404c66:	c3                   	ret    
  404c67:	66 0f 1f 84 00 00 00 	nopw   0x0(%rax,%rax,1)
  404c6e:	00 00 

0000000000404c70 <_ZNSt8_Rb_treeINSt7__cxx1112basic_stringIcSt11char_traitsIcESaIcEEESt4pairIKS5_fESt10_Select1stIS8_ESt4lessIS5_ESaIS8_EE24_M_get_insert_unique_posERS7_>:
  404c70:	55                   	push   %rbp
  404c71:	48 89 e5             	mov    %rsp,%rbp
  404c74:	48 81 ec 90 00 00 00 	sub    $0x90,%rsp
  404c7b:	48 89 7d e8          	mov    %rdi,-0x18(%rbp)
  404c7f:	48 89 75 e0          	mov    %rsi,-0x20(%rbp)
  404c83:	48 8b 7d e8          	mov    -0x18(%rbp),%rdi
  404c87:	48 89 7d 98          	mov    %rdi,-0x68(%rbp)
  404c8b:	e8 90 fa ff ff       	call   404720 <_ZNSt8_Rb_treeINSt7__cxx1112basic_stringIcSt11char_traitsIcESaIcEEESt4pairIKS5_fESt10_Select1stIS8_ESt4lessIS5_ESaIS8_EE8_M_beginEv>
  404c90:	48 8b 7d 98          	mov    -0x68(%rbp),%rdi
  404c94:	48 89 45 d8          	mov    %rax,-0x28(%rbp)
  404c98:	e8 f3 02 00 00       	call   404f90 <_ZNSt8_Rb_treeINSt7__cxx1112basic_stringIcSt11char_traitsIcESaIcEEESt4pairIKS5_fESt10_Select1stIS8_ESt4lessIS5_ESaIS8_EE6_M_endEv>
  404c9d:	48 89 45 d0          	mov    %rax,-0x30(%rbp)
  404ca1:	c6 45 cf 01          	movb   $0x1,-0x31(%rbp)
  404ca5:	48 83 7d d8 00       	cmpq   $0x0,-0x28(%rbp)
  404caa:	0f 84 6c 00 00 00    	je     404d1c <_ZNSt8_Rb_treeINSt7__cxx1112basic_stringIcSt11char_traitsIcESaIcEEESt4pairIKS5_fESt10_Select1stIS8_ESt4lessIS5_ESaIS8_EE24_M_get_insert_unique_posERS7_+0xac>
  404cb0:	48 8b 45 98          	mov    -0x68(%rbp),%rax
  404cb4:	48 8b 4d d8          	mov    -0x28(%rbp),%rcx
  404cb8:	48 89 4d d0          	mov    %rcx,-0x30(%rbp)
  404cbc:	48 89 45 88          	mov    %rax,-0x78(%rbp)
  404cc0:	48 8b 45 e0          	mov    -0x20(%rbp),%rax
  404cc4:	48 89 45 90          	mov    %rax,-0x70(%rbp)
  404cc8:	48 8b 7d d8          	mov    -0x28(%rbp),%rdi
  404ccc:	e8 0f 03 00 00       	call   404fe0 <_ZNSt8_Rb_treeINSt7__cxx1112basic_stringIcSt11char_traitsIcESaIcEEESt4pairIKS5_fESt10_Select1stIS8_ESt4lessIS5_ESaIS8_EE6_S_keyEPKSt13_Rb_tree_nodeIS8_E>
  404cd1:	48 8b 7d 88          	mov    -0x78(%rbp),%rdi
  404cd5:	48 8b 75 90          	mov    -0x70(%rbp),%rsi
  404cd9:	48 89 c2             	mov    %rax,%rdx
  404cdc:	e8 cf 02 00 00       	call   404fb0 <_ZNKSt4lessINSt7__cxx1112basic_stringIcSt11char_traitsIcESaIcEEEEclERKS5_S8_>
  404ce1:	24 01                	and    $0x1,%al
  404ce3:	88 45 cf             	mov    %al,-0x31(%rbp)
  404ce6:	f6 45 cf 01          	testb  $0x1,-0x31(%rbp)
  404cea:	0f 84 12 00 00 00    	je     404d02 <_ZNSt8_Rb_treeINSt7__cxx1112basic_stringIcSt11char_traitsIcESaIcEEESt4pairIKS5_fESt10_Select1stIS8_ESt4lessIS5_ESaIS8_EE24_M_get_insert_unique_posERS7_+0x92>
  404cf0:	48 8b 7d d8          	mov    -0x28(%rbp),%rdi
  404cf4:	e8 87 fa ff ff       	call   404780 <_ZNSt8_Rb_treeINSt7__cxx1112basic_stringIcSt11char_traitsIcESaIcEEESt4pairIKS5_fESt10_Select1stIS8_ESt4lessIS5_ESaIS8_EE7_S_leftEPSt18_Rb_tree_node_base>
  404cf9:	48 89 45 80          	mov    %rax,-0x80(%rbp)
  404cfd:	e9 0d 00 00 00       	jmp    404d0f <_ZNSt8_Rb_treeINSt7__cxx1112basic_stringIcSt11char_traitsIcESaIcEEESt4pairIKS5_fESt10_Select1stIS8_ESt4lessIS5_ESaIS8_EE24_M_get_insert_unique_posERS7_+0x9f>
  404d02:	48 8b 7d d8          	mov    -0x28(%rbp),%rdi
  404d06:	e8 55 fa ff ff       	call   404760 <_ZNSt8_Rb_treeINSt7__cxx1112basic_stringIcSt11char_traitsIcESaIcEEESt4pairIKS5_fESt10_Select1stIS8_ESt4lessIS5_ESaIS8_EE8_S_rightEPSt18_Rb_tree_node_base>
  404d0b:	48 89 45 80          	mov    %rax,-0x80(%rbp)
  404d0f:	48 8b 45 80          	mov    -0x80(%rbp),%rax
  404d13:	48 89 45 d8          	mov    %rax,-0x28(%rbp)
  404d17:	e9 89 ff ff ff       	jmp    404ca5 <_ZNSt8_Rb_treeINSt7__cxx1112basic_stringIcSt11char_traitsIcESaIcEEESt4pairIKS5_fESt10_Select1stIS8_ESt4lessIS5_ESaIS8_EE24_M_get_insert_unique_posERS7_+0x35>
  404d1c:	48 8b 75 d0          	mov    -0x30(%rbp),%rsi
  404d20:	48 8d 7d c0          	lea    -0x40(%rbp),%rdi
  404d24:	e8 47 02 00 00       	call   404f70 <_ZNSt17_Rb_tree_iteratorISt4pairIKNSt7__cxx1112basic_stringIcSt11char_traitsIcESaIcEEEfEEC2EPSt18_Rb_tree_node_base>
  404d29:	f6 45 cf 01          	testb  $0x1,-0x31(%rbp)
  404d2d:	0f 84 53 00 00 00    	je     404d86 <_ZNSt8_Rb_treeINSt7__cxx1112basic_stringIcSt11char_traitsIcESaIcEEESt4pairIKS5_fESt10_Select1stIS8_ESt4lessIS5_ESaIS8_EE24_M_get_insert_unique_posERS7_+0x116>
  404d33:	48 8b 7d 98          	mov    -0x68(%rbp),%rdi
  404d37:	e8 04 03 00 00       	call   405040 <_ZNSt8_Rb_treeINSt7__cxx1112basic_stringIcSt11char_traitsIcESaIcEEESt4pairIKS5_fESt10_Select1stIS8_ESt4lessIS5_ESaIS8_EE5beginEv>
  404d3c:	48 89 45 b8          	mov    %rax,-0x48(%rbp)
  404d40:	48 8d 7d c0          	lea    -0x40(%rbp),%rdi
  404d44:	48 8d 75 b8          	lea    -0x48(%rbp),%rsi
  404d48:	e8 c3 02 00 00       	call   405010 <_ZSteqRKSt17_Rb_tree_iteratorISt4pairIKNSt7__cxx1112basic_stringIcSt11char_traitsIcESaIcEEEfEESB_>
  404d4d:	a8 01                	test   $0x1,%al
  404d4f:	0f 85 05 00 00 00    	jne    404d5a <_ZNSt8_Rb_treeINSt7__cxx1112basic_stringIcSt11char_traitsIcESaIcEEESt4pairIKS5_fESt10_Select1stIS8_ESt4lessIS5_ESaIS8_EE24_M_get_insert_unique_posERS7_+0xea>
  404d55:	e9 1e 00 00 00       	jmp    404d78 <_ZNSt8_Rb_treeINSt7__cxx1112basic_stringIcSt11char_traitsIcESaIcEEESt4pairIKS5_fESt10_Select1stIS8_ESt4lessIS5_ESaIS8_EE24_M_get_insert_unique_posERS7_+0x108>
  404d5a:	48 8b 45 d8          	mov    -0x28(%rbp),%rax
  404d5e:	48 89 45 b0          	mov    %rax,-0x50(%rbp)
  404d62:	48 8d 7d f0          	lea    -0x10(%rbp),%rdi
  404d66:	48 8d 75 b0          	lea    -0x50(%rbp),%rsi
  404d6a:	48 8d 55 d0          	lea    -0x30(%rbp),%rdx
  404d6e:	e8 fd 02 00 00       	call   405070 <_ZNSt4pairIPSt18_Rb_tree_node_baseS1_EC2ERKS1_S4_>
  404d73:	e9 79 00 00 00       	jmp    404df1 <_ZNSt8_Rb_treeINSt7__cxx1112basic_stringIcSt11char_traitsIcESaIcEEESt4pairIKS5_fESt10_Select1stIS8_ESt4lessIS5_ESaIS8_EE24_M_get_insert_unique_posERS7_+0x181>
  404d78:	48 8d 7d c0          	lea    -0x40(%rbp),%rdi
  404d7c:	e8 1f 03 00 00       	call   4050a0 <_ZNSt17_Rb_tree_iteratorISt4pairIKNSt7__cxx1112basic_stringIcSt11char_traitsIcESaIcEEEfEEmmEv>
  404d81:	e9 00 00 00 00       	jmp    404d86 <_ZNSt8_Rb_treeINSt7__cxx1112basic_stringIcSt11char_traitsIcESaIcEEESt4pairIKS5_fESt10_Select1stIS8_ESt4lessIS5_ESaIS8_EE24_M_get_insert_unique_posERS7_+0x116>
  404d86:	48 8b 45 98          	mov    -0x68(%rbp),%rax
  404d8a:	48 89 85 78 ff ff ff 	mov    %rax,-0x88(%rbp)
  404d91:	48 8b 7d c0          	mov    -0x40(%rbp),%rdi
  404d95:	e8 36 03 00 00       	call   4050d0 <_ZNSt8_Rb_treeINSt7__cxx1112basic_stringIcSt11char_traitsIcESaIcEEESt4pairIKS5_fESt10_Select1stIS8_ESt4lessIS5_ESaIS8_EE6_S_keyEPKSt18_Rb_tree_node_base>
  404d9a:	48 8b bd 78 ff ff ff 	mov    -0x88(%rbp),%rdi
  404da1:	48 89 c6             	mov    %rax,%rsi
  404da4:	48 8b 55 e0          	mov    -0x20(%rbp),%rdx
  404da8:	e8 03 02 00 00       	call   404fb0 <_ZNKSt4lessINSt7__cxx1112basic_stringIcSt11char_traitsIcESaIcEEEEclERKS5_S8_>
  404dad:	a8 01                	test   $0x1,%al
  404daf:	0f 85 05 00 00 00    	jne    404dba <_ZNSt8_Rb_treeINSt7__cxx1112basic_stringIcSt11char_traitsIcESaIcEEESt4pairIKS5_fESt10_Select1stIS8_ESt4lessIS5_ESaIS8_EE24_M_get_insert_unique_posERS7_+0x14a>
  404db5:	e9 1e 00 00 00       	jmp    404dd8 <_ZNSt8_Rb_treeINSt7__cxx1112basic_stringIcSt11char_traitsIcESaIcEEESt4pairIKS5_fESt10_Select1stIS8_ESt4lessIS5_ESaIS8_EE24_M_get_insert_unique_posERS7_+0x168>
  404dba:	48 8b 45 d8          	mov    -0x28(%rbp),%rax
  404dbe:	48 89 45 a8          	mov    %rax,-0x58(%rbp)
  404dc2:	48 8d 7d f0          	lea    -0x10(%rbp),%rdi
  404dc6:	48 8d 75 a8          	lea    -0x58(%rbp),%rsi
  404dca:	48 8d 55 d0          	lea    -0x30(%rbp),%rdx
  404dce:	e8 9d 02 00 00       	call   405070 <_ZNSt4pairIPSt18_Rb_tree_node_baseS1_EC2ERKS1_S4_>
  404dd3:	e9 19 00 00 00       	jmp    404df1 <_ZNSt8_Rb_treeINSt7__cxx1112basic_stringIcSt11char_traitsIcESaIcEEESt4pairIKS5_fESt10_Select1stIS8_ESt4lessIS5_ESaIS8_EE24_M_get_insert_unique_posERS7_+0x181>
  404dd8:	48 8d 75 c0          	lea    -0x40(%rbp),%rsi
  404ddc:	48 c7 45 a0 00 00 00 	movq   $0x0,-0x60(%rbp)
  404de3:	00 
  404de4:	48 8d 7d f0          	lea    -0x10(%rbp),%rdi
  404de8:	48 8d 55 a0          	lea    -0x60(%rbp),%rdx
  404dec:	e8 7f 02 00 00       	call   405070 <_ZNSt4pairIPSt18_Rb_tree_node_baseS1_EC2ERKS1_S4_>
  404df1:	48 8b 45 f0          	mov    -0x10(%rbp),%rax
  404df5:	48 8b 55 f8          	mov    -0x8(%rbp),%rdx
  404df9:	48 81 c4 90 00 00 00 	add    $0x90,%rsp
  404e00:	5d                   	pop    %rbp
  404e01:	c3                   	ret    
  404e02:	66 2e 0f 1f 84 00 00 	cs nopw 0x0(%rax,%rax,1)
  404e09:	00 00 00 
  404e0c:	0f 1f 40 00          	nopl   0x0(%rax)

0000000000404e10 <_ZNKSt10_Select1stISt4pairIKNSt7__cxx1112basic_stringIcSt11char_traitsIcESaIcEEEfEEclERKS8_>:
  404e10:	55                   	push   %rbp
  404e11:	48 89 e5             	mov    %rsp,%rbp
  404e14:	48 89 7d f8          	mov    %rdi,-0x8(%rbp)
  404e18:	48 89 75 f0          	mov    %rsi,-0x10(%rbp)
  404e1c:	48 8b 45 f0          	mov    -0x10(%rbp),%rax
  404e20:	5d                   	pop    %rbp
  404e21:	c3                   	ret    
  404e22:	66 2e 0f 1f 84 00 00 	cs nopw 0x0(%rax,%rax,1)
  404e29:	00 00 00 
  404e2c:	0f 1f 40 00          	nopl   0x0(%rax)

0000000000404e30 <_ZNSt8_Rb_treeINSt7__cxx1112basic_stringIcSt11char_traitsIcESaIcEEESt4pairIKS5_fESt10_Select1stIS8_ESt4lessIS5_ESaIS8_EE11_Alloc_nodeC2ERSE_>:
  404e30:	55                   	push   %rbp
  404e31:	48 89 e5             	mov    %rsp,%rbp
  404e34:	48 89 7d f8          	mov    %rdi,-0x8(%rbp)
  404e38:	48 89 75 f0          	mov    %rsi,-0x10(%rbp)
  404e3c:	48 8b 45 f8          	mov    -0x8(%rbp),%rax
  404e40:	48 8b 4d f0          	mov    -0x10(%rbp),%rcx
  404e44:	48 89 08             	mov    %rcx,(%rax)
  404e47:	5d                   	pop    %rbp
  404e48:	c3                   	ret    
  404e49:	0f 1f 80 00 00 00 00 	nopl   0x0(%rax)

0000000000404e50 <_ZNSt8_Rb_treeINSt7__cxx1112basic_stringIcSt11char_traitsIcESaIcEEESt4pairIKS5_fESt10_Select1stIS8_ESt4lessIS5_ESaIS8_EE10_M_insert_INSE_11_Alloc_nodeEEESt17_Rb_tree_iteratorIS8_EPSt18_Rb_tree_node_baseSK_RKS8_RT_>:
  404e50:	55                   	push   %rbp
  404e51:	48 89 e5             	mov    %rsp,%rbp
  404e54:	48 83 ec 70          	sub    $0x70,%rsp
  404e58:	48 89 7d f0          	mov    %rdi,-0x10(%rbp)
  404e5c:	48 89 75 e8          	mov    %rsi,-0x18(%rbp)
  404e60:	48 89 55 e0          	mov    %rdx,-0x20(%rbp)
  404e64:	48 89 4d d8          	mov    %rcx,-0x28(%rbp)
  404e68:	4c 89 45 d0          	mov    %r8,-0x30(%rbp)
  404e6c:	48 8b 45 f0          	mov    -0x10(%rbp),%rax
  404e70:	48 89 45 b0          	mov    %rax,-0x50(%rbp)
  404e74:	b0 01                	mov    $0x1,%al
  404e76:	48 83 7d e8 00       	cmpq   $0x0,-0x18(%rbp)
  404e7b:	88 45 bf             	mov    %al,-0x41(%rbp)
  404e7e:	0f 85 5b 00 00 00    	jne    404edf <_ZNSt8_Rb_treeINSt7__cxx1112basic_stringIcSt11char_traitsIcESaIcEEESt4pairIKS5_fESt10_Select1stIS8_ESt4lessIS5_ESaIS8_EE10_M_insert_INSE_11_Alloc_nodeEEESt17_Rb_tree_iteratorIS8_EPSt18_Rb_tree_node_baseSK_RKS8_RT_+0x8f>
  404e84:	48 8b 7d b0          	mov    -0x50(%rbp),%rdi
  404e88:	48 8b 45 e0          	mov    -0x20(%rbp),%rax
  404e8c:	48 89 45 a8          	mov    %rax,-0x58(%rbp)
  404e90:	e8 fb 00 00 00       	call   404f90 <_ZNSt8_Rb_treeINSt7__cxx1112basic_stringIcSt11char_traitsIcESaIcEEESt4pairIKS5_fESt10_Select1stIS8_ESt4lessIS5_ESaIS8_EE6_M_endEv>
  404e95:	48 8b 4d a8          	mov    -0x58(%rbp),%rcx
  404e99:	48 89 c2             	mov    %rax,%rdx
  404e9c:	b0 01                	mov    $0x1,%al
  404e9e:	48 39 d1             	cmp    %rdx,%rcx
  404ea1:	88 45 bf             	mov    %al,-0x41(%rbp)
  404ea4:	0f 84 35 00 00 00    	je     404edf <_ZNSt8_Rb_treeINSt7__cxx1112basic_stringIcSt11char_traitsIcESaIcEEESt4pairIKS5_fESt10_Select1stIS8_ESt4lessIS5_ESaIS8_EE10_M_insert_INSE_11_Alloc_nodeEEESt17_Rb_tree_iteratorIS8_EPSt18_Rb_tree_node_baseSK_RKS8_RT_+0x8f>
  404eaa:	48 8b 45 b0          	mov    -0x50(%rbp),%rax
  404eae:	48 89 45 98          	mov    %rax,-0x68(%rbp)
  404eb2:	48 8b 75 d8          	mov    -0x28(%rbp),%rsi
  404eb6:	48 8d 7d c8          	lea    -0x38(%rbp),%rdi
  404eba:	e8 51 ff ff ff       	call   404e10 <_ZNKSt10_Select1stISt4pairIKNSt7__cxx1112basic_stringIcSt11char_traitsIcESaIcEEEfEEclERKS8_>
  404ebf:	48 89 45 a0          	mov    %rax,-0x60(%rbp)
  404ec3:	48 8b 7d e0          	mov    -0x20(%rbp),%rdi
  404ec7:	e8 04 02 00 00       	call   4050d0 <_ZNSt8_Rb_treeINSt7__cxx1112basic_stringIcSt11char_traitsIcESaIcEEESt4pairIKS5_fESt10_Select1stIS8_ESt4lessIS5_ESaIS8_EE6_S_keyEPKSt18_Rb_tree_node_base>
  404ecc:	48 8b 7d 98          	mov    -0x68(%rbp),%rdi
  404ed0:	48 8b 75 a0          	mov    -0x60(%rbp),%rsi
  404ed4:	48 89 c2             	mov    %rax,%rdx
  404ed7:	e8 d4 00 00 00       	call   404fb0 <_ZNKSt4lessINSt7__cxx1112basic_stringIcSt11char_traitsIcESaIcEEEEclERKS5_S8_>
  404edc:	88 45 bf             	mov    %al,-0x41(%rbp)
  404edf:	8a 45 bf             	mov    -0x41(%rbp),%al
  404ee2:	24 01                	and    $0x1,%al
  404ee4:	88 45 cf             	mov    %al,-0x31(%rbp)
  404ee7:	48 8b 7d d0          	mov    -0x30(%rbp),%rdi
  404eeb:	48 8b 75 d8          	mov    -0x28(%rbp),%rsi
  404eef:	e8 5c 02 00 00       	call   405150 <_ZNKSt8_Rb_treeINSt7__cxx1112basic_stringIcSt11char_traitsIcESaIcEEESt4pairIKS5_fESt10_Select1stIS8_ESt4lessIS5_ESaIS8_EE11_Alloc_nodeclIS8_EEPSt13_Rb_tree_nodeIS8_ERKT_>
  404ef4:	48 8b 4d b0          	mov    -0x50(%rbp),%rcx
  404ef8:	48 89 45 c0          	mov    %rax,-0x40(%rbp)
  404efc:	8a 45 cf             	mov    -0x31(%rbp),%al
  404eff:	48 8b 75 c0          	mov    -0x40(%rbp),%rsi
  404f03:	48 8b 55 e0          	mov    -0x20(%rbp),%rdx
  404f07:	48 83 c1 08          	add    $0x8,%rcx
  404f0b:	24 01                	and    $0x1,%al
  404f0d:	0f b6 f8             	movzbl %al,%edi
  404f10:	e8 3b d1 ff ff       	call   402050 <_ZSt29_Rb_tree_insert_and_rebalancebPSt18_Rb_tree_node_baseS0_RS_@plt>
  404f15:	48 8b 45 b0          	mov    -0x50(%rbp),%rax
  404f19:	48 8b 48 28          	mov    0x28(%rax),%rcx
  404f1d:	48 83 c1 01          	add    $0x1,%rcx
  404f21:	48 89 48 28          	mov    %rcx,0x28(%rax)
  404f25:	48 8b 75 c0          	mov    -0x40(%rbp),%rsi
  404f29:	48 8d 7d f8          	lea    -0x8(%rbp),%rdi
  404f2d:	e8 3e 00 00 00       	call   404f70 <_ZNSt17_Rb_tree_iteratorISt4pairIKNSt7__cxx1112basic_stringIcSt11char_traitsIcESaIcEEEfEEC2EPSt18_Rb_tree_node_base>
  404f32:	48 8b 45 f8          	mov    -0x8(%rbp),%rax
  404f36:	48 83 c4 70          	add    $0x70,%rsp
  404f3a:	5d                   	pop    %rbp
  404f3b:	c3                   	ret    
  404f3c:	0f 1f 40 00          	nopl   0x0(%rax)

0000000000404f40 <_ZNSt4pairISt17_Rb_tree_iteratorIS_IKNSt7__cxx1112basic_stringIcSt11char_traitsIcESaIcEEEfEEbEC2ERKS9_RKb>:
  404f40:	55                   	push   %rbp
  404f41:	48 89 e5             	mov    %rsp,%rbp
  404f44:	48 89 7d f8          	mov    %rdi,-0x8(%rbp)
  404f48:	48 89 75 f0          	mov    %rsi,-0x10(%rbp)
  404f4c:	48 89 55 e8          	mov    %rdx,-0x18(%rbp)
  404f50:	48 8b 45 f8          	mov    -0x8(%rbp),%rax
  404f54:	48 8b 4d f0          	mov    -0x10(%rbp),%rcx
  404f58:	48 8b 09             	mov    (%rcx),%rcx
  404f5b:	48 89 08             	mov    %rcx,(%rax)
  404f5e:	48 8b 4d e8          	mov    -0x18(%rbp),%rcx
  404f62:	8a 09                	mov    (%rcx),%cl
  404f64:	80 e1 01             	and    $0x1,%cl
  404f67:	88 48 08             	mov    %cl,0x8(%rax)
  404f6a:	5d                   	pop    %rbp
  404f6b:	c3                   	ret    
  404f6c:	0f 1f 40 00          	nopl   0x0(%rax)

0000000000404f70 <_ZNSt17_Rb_tree_iteratorISt4pairIKNSt7__cxx1112basic_stringIcSt11char_traitsIcESaIcEEEfEEC2EPSt18_Rb_tree_node_base>:
  404f70:	55                   	push   %rbp
  404f71:	48 89 e5             	mov    %rsp,%rbp
  404f74:	48 89 7d f8          	mov    %rdi,-0x8(%rbp)
  404f78:	48 89 75 f0          	mov    %rsi,-0x10(%rbp)
  404f7c:	48 8b 45 f8          	mov    -0x8(%rbp),%rax
  404f80:	48 8b 4d f0          	mov    -0x10(%rbp),%rcx
  404f84:	48 89 08             	mov    %rcx,(%rax)
  404f87:	5d                   	pop    %rbp
  404f88:	c3                   	ret    
  404f89:	0f 1f 80 00 00 00 00 	nopl   0x0(%rax)

0000000000404f90 <_ZNSt8_Rb_treeINSt7__cxx1112basic_stringIcSt11char_traitsIcESaIcEEESt4pairIKS5_fESt10_Select1stIS8_ESt4lessIS5_ESaIS8_EE6_M_endEv>:
  404f90:	55                   	push   %rbp
  404f91:	48 89 e5             	mov    %rsp,%rbp
  404f94:	48 89 7d f8          	mov    %rdi,-0x8(%rbp)
  404f98:	48 8b 45 f8          	mov    -0x8(%rbp),%rax
  404f9c:	48 83 c0 08          	add    $0x8,%rax
  404fa0:	5d                   	pop    %rbp
  404fa1:	c3                   	ret    
  404fa2:	66 2e 0f 1f 84 00 00 	cs nopw 0x0(%rax,%rax,1)
  404fa9:	00 00 00 
  404fac:	0f 1f 40 00          	nopl   0x0(%rax)

0000000000404fb0 <_ZNKSt4lessINSt7__cxx1112basic_stringIcSt11char_traitsIcESaIcEEEEclERKS5_S8_>:
  404fb0:	55                   	push   %rbp
  404fb1:	48 89 e5             	mov    %rsp,%rbp
  404fb4:	48 83 ec 20          	sub    $0x20,%rsp
  404fb8:	48 89 7d f8          	mov    %rdi,-0x8(%rbp)
  404fbc:	48 89 75 f0          	mov    %rsi,-0x10(%rbp)
  404fc0:	48 89 55 e8          	mov    %rdx,-0x18(%rbp)
  404fc4:	48 8b 7d f0          	mov    -0x10(%rbp),%rdi
  404fc8:	48 8b 75 e8          	mov    -0x18(%rbp),%rsi
  404fcc:	e8 1f 01 00 00       	call   4050f0 <_ZStltIcSt11char_traitsIcESaIcEEbRKNSt7__cxx1112basic_stringIT_T0_T1_EESA_>
  404fd1:	24 01                	and    $0x1,%al
  404fd3:	0f b6 c0             	movzbl %al,%eax
  404fd6:	48 83 c4 20          	add    $0x20,%rsp
  404fda:	5d                   	pop    %rbp
  404fdb:	c3                   	ret    
  404fdc:	0f 1f 40 00          	nopl   0x0(%rax)

0000000000404fe0 <_ZNSt8_Rb_treeINSt7__cxx1112basic_stringIcSt11char_traitsIcESaIcEEESt4pairIKS5_fESt10_Select1stIS8_ESt4lessIS5_ESaIS8_EE6_S_keyEPKSt13_Rb_tree_nodeIS8_E>:
  404fe0:	55                   	push   %rbp
  404fe1:	48 89 e5             	mov    %rsp,%rbp
  404fe4:	48 83 ec 10          	sub    $0x10,%rsp
  404fe8:	48 89 7d f8          	mov    %rdi,-0x8(%rbp)
  404fec:	48 8b 7d f8          	mov    -0x8(%rbp),%rdi
  404ff0:	e8 2b 01 00 00       	call   405120 <_ZNKSt13_Rb_tree_nodeISt4pairIKNSt7__cxx1112basic_stringIcSt11char_traitsIcESaIcEEEfEE9_M_valptrEv>
  404ff5:	48 89 c6             	mov    %rax,%rsi
  404ff8:	48 8d 7d f0          	lea    -0x10(%rbp),%rdi
  404ffc:	e8 0f fe ff ff       	call   404e10 <_ZNKSt10_Select1stISt4pairIKNSt7__cxx1112basic_stringIcSt11char_traitsIcESaIcEEEfEEclERKS8_>
  405001:	48 83 c4 10          	add    $0x10,%rsp
  405005:	5d                   	pop    %rbp
  405006:	c3                   	ret    
  405007:	66 0f 1f 84 00 00 00 	nopw   0x0(%rax,%rax,1)
  40500e:	00 00 

0000000000405010 <_ZSteqRKSt17_Rb_tree_iteratorISt4pairIKNSt7__cxx1112basic_stringIcSt11char_traitsIcESaIcEEEfEESB_>:
  405010:	55                   	push   %rbp
  405011:	48 89 e5             	mov    %rsp,%rbp
  405014:	48 89 7d f8          	mov    %rdi,-0x8(%rbp)
  405018:	48 89 75 f0          	mov    %rsi,-0x10(%rbp)
  40501c:	48 8b 45 f8          	mov    -0x8(%rbp),%rax
  405020:	48 8b 00             	mov    (%rax),%rax
  405023:	48 8b 4d f0          	mov    -0x10(%rbp),%rcx
  405027:	48 3b 01             	cmp    (%rcx),%rax
  40502a:	0f 94 c0             	sete   %al
  40502d:	24 01                	and    $0x1,%al
  40502f:	0f b6 c0             	movzbl %al,%eax
  405032:	5d                   	pop    %rbp
  405033:	c3                   	ret    
  405034:	66 2e 0f 1f 84 00 00 	cs nopw 0x0(%rax,%rax,1)
  40503b:	00 00 00 
  40503e:	66 90                	xchg   %ax,%ax

0000000000405040 <_ZNSt8_Rb_treeINSt7__cxx1112basic_stringIcSt11char_traitsIcESaIcEEESt4pairIKS5_fESt10_Select1stIS8_ESt4lessIS5_ESaIS8_EE5beginEv>:
  405040:	55                   	push   %rbp
  405041:	48 89 e5             	mov    %rsp,%rbp
  405044:	48 83 ec 10          	sub    $0x10,%rsp
  405048:	48 89 7d f0          	mov    %rdi,-0x10(%rbp)
  40504c:	48 8b 45 f0          	mov    -0x10(%rbp),%rax
  405050:	48 8b 70 18          	mov    0x18(%rax),%rsi
  405054:	48 8d 7d f8          	lea    -0x8(%rbp),%rdi
  405058:	e8 13 ff ff ff       	call   404f70 <_ZNSt17_Rb_tree_iteratorISt4pairIKNSt7__cxx1112basic_stringIcSt11char_traitsIcESaIcEEEfEEC2EPSt18_Rb_tree_node_base>
  40505d:	48 8b 45 f8          	mov    -0x8(%rbp),%rax
  405061:	48 83 c4 10          	add    $0x10,%rsp
  405065:	5d                   	pop    %rbp
  405066:	c3                   	ret    
  405067:	66 0f 1f 84 00 00 00 	nopw   0x0(%rax,%rax,1)
  40506e:	00 00 

0000000000405070 <_ZNSt4pairIPSt18_Rb_tree_node_baseS1_EC2ERKS1_S4_>:
  405070:	55                   	push   %rbp
  405071:	48 89 e5             	mov    %rsp,%rbp
  405074:	48 89 7d f8          	mov    %rdi,-0x8(%rbp)
  405078:	48 89 75 f0          	mov    %rsi,-0x10(%rbp)
  40507c:	48 89 55 e8          	mov    %rdx,-0x18(%rbp)
  405080:	48 8b 45 f8          	mov    -0x8(%rbp),%rax
  405084:	48 8b 4d f0          	mov    -0x10(%rbp),%rcx
  405088:	48 8b 09             	mov    (%rcx),%rcx
  40508b:	48 89 08             	mov    %rcx,(%rax)
  40508e:	48 8b 4d e8          	mov    -0x18(%rbp),%rcx
  405092:	48 8b 09             	mov    (%rcx),%rcx
  405095:	48 89 48 08          	mov    %rcx,0x8(%rax)
  405099:	5d                   	pop    %rbp
  40509a:	c3                   	ret    
  40509b:	0f 1f 44 00 00       	nopl   0x0(%rax,%rax,1)

00000000004050a0 <_ZNSt17_Rb_tree_iteratorISt4pairIKNSt7__cxx1112basic_stringIcSt11char_traitsIcESaIcEEEfEEmmEv>:
  4050a0:	55                   	push   %rbp
  4050a1:	48 89 e5             	mov    %rsp,%rbp
  4050a4:	48 83 ec 10          	sub    $0x10,%rsp
  4050a8:	48 89 7d f8          	mov    %rdi,-0x8(%rbp)
  4050ac:	48 8b 45 f8          	mov    -0x8(%rbp),%rax
  4050b0:	48 89 45 f0          	mov    %rax,-0x10(%rbp)
  4050b4:	48 8b 38             	mov    (%rax),%rdi
  4050b7:	e8 44 d1 ff ff       	call   402200 <_ZSt18_Rb_tree_decrementPSt18_Rb_tree_node_base@plt>
  4050bc:	48 89 c1             	mov    %rax,%rcx
  4050bf:	48 8b 45 f0          	mov    -0x10(%rbp),%rax
  4050c3:	48 89 08             	mov    %rcx,(%rax)
  4050c6:	48 83 c4 10          	add    $0x10,%rsp
  4050ca:	5d                   	pop    %rbp
  4050cb:	c3                   	ret    
  4050cc:	0f 1f 40 00          	nopl   0x0(%rax)

00000000004050d0 <_ZNSt8_Rb_treeINSt7__cxx1112basic_stringIcSt11char_traitsIcESaIcEEESt4pairIKS5_fESt10_Select1stIS8_ESt4lessIS5_ESaIS8_EE6_S_keyEPKSt18_Rb_tree_node_base>:
  4050d0:	55                   	push   %rbp
  4050d1:	48 89 e5             	mov    %rsp,%rbp
  4050d4:	48 83 ec 10          	sub    $0x10,%rsp
  4050d8:	48 89 7d f8          	mov    %rdi,-0x8(%rbp)
  4050dc:	48 8b 7d f8          	mov    -0x8(%rbp),%rdi
  4050e0:	e8 fb fe ff ff       	call   404fe0 <_ZNSt8_Rb_treeINSt7__cxx1112basic_stringIcSt11char_traitsIcESaIcEEESt4pairIKS5_fESt10_Select1stIS8_ESt4lessIS5_ESaIS8_EE6_S_keyEPKSt13_Rb_tree_nodeIS8_E>
  4050e5:	48 83 c4 10          	add    $0x10,%rsp
  4050e9:	5d                   	pop    %rbp
  4050ea:	c3                   	ret    
  4050eb:	0f 1f 44 00 00       	nopl   0x0(%rax,%rax,1)

00000000004050f0 <_ZStltIcSt11char_traitsIcESaIcEEbRKNSt7__cxx1112basic_stringIT_T0_T1_EESA_>:
  4050f0:	55                   	push   %rbp
  4050f1:	48 89 e5             	mov    %rsp,%rbp
  4050f4:	48 83 ec 10          	sub    $0x10,%rsp
  4050f8:	48 89 7d f8          	mov    %rdi,-0x8(%rbp)
  4050fc:	48 89 75 f0          	mov    %rsi,-0x10(%rbp)
  405100:	48 8b 7d f8          	mov    -0x8(%rbp),%rdi
  405104:	48 8b 75 f0          	mov    -0x10(%rbp),%rsi
  405108:	e8 23 cf ff ff       	call   402030 <_ZNKSt7__cxx1112basic_stringIcSt11char_traitsIcESaIcEE7compareERKS4_@plt>
  40510d:	83 f8 00             	cmp    $0x0,%eax
  405110:	0f 9c c0             	setl   %al
  405113:	24 01                	and    $0x1,%al
  405115:	0f b6 c0             	movzbl %al,%eax
  405118:	48 83 c4 10          	add    $0x10,%rsp
  40511c:	5d                   	pop    %rbp
  40511d:	c3                   	ret    
  40511e:	66 90                	xchg   %ax,%ax

0000000000405120 <_ZNKSt13_Rb_tree_nodeISt4pairIKNSt7__cxx1112basic_stringIcSt11char_traitsIcESaIcEEEfEE9_M_valptrEv>:
  405120:	55                   	push   %rbp
  405121:	48 89 e5             	mov    %rsp,%rbp
  405124:	48 83 ec 10          	sub    $0x10,%rsp
  405128:	48 89 7d f8          	mov    %rdi,-0x8(%rbp)
  40512c:	48 8b 7d f8          	mov    -0x8(%rbp),%rdi
  405130:	48 83 c7 20          	add    $0x20,%rdi
  405134:	e8 07 00 00 00       	call   405140 <_ZSt11__addressofIKSt4pairIKNSt7__cxx1112basic_stringIcSt11char_traitsIcESaIcEEEfEEPT_RSA_>
  405139:	48 83 c4 10          	add    $0x10,%rsp
  40513d:	5d                   	pop    %rbp
  40513e:	c3                   	ret    
  40513f:	90                   	nop

0000000000405140 <_ZSt11__addressofIKSt4pairIKNSt7__cxx1112basic_stringIcSt11char_traitsIcESaIcEEEfEEPT_RSA_>:
  405140:	55                   	push   %rbp
  405141:	48 89 e5             	mov    %rsp,%rbp
  405144:	48 89 7d f8          	mov    %rdi,-0x8(%rbp)
  405148:	48 8b 45 f8          	mov    -0x8(%rbp),%rax
  40514c:	5d                   	pop    %rbp
  40514d:	c3                   	ret    
  40514e:	66 90                	xchg   %ax,%ax

0000000000405150 <_ZNKSt8_Rb_treeINSt7__cxx1112basic_stringIcSt11char_traitsIcESaIcEEESt4pairIKS5_fESt10_Select1stIS8_ESt4lessIS5_ESaIS8_EE11_Alloc_nodeclIS8_EEPSt13_Rb_tree_nodeIS8_ERKT_>:
  405150:	55                   	push   %rbp
  405151:	48 89 e5             	mov    %rsp,%rbp
  405154:	48 83 ec 10          	sub    $0x10,%rsp
  405158:	48 89 7d f8          	mov    %rdi,-0x8(%rbp)
  40515c:	48 89 75 f0          	mov    %rsi,-0x10(%rbp)
  405160:	48 8b 45 f8          	mov    -0x8(%rbp),%rax
  405164:	48 8b 38             	mov    (%rax),%rdi
  405167:	48 8b 75 f0          	mov    -0x10(%rbp),%rsi
  40516b:	e8 10 00 00 00       	call   405180 <_ZNSt8_Rb_treeINSt7__cxx1112basic_stringIcSt11char_traitsIcESaIcEEESt4pairIKS5_fESt10_Select1stIS8_ESt4lessIS5_ESaIS8_EE14_M_create_nodeERKS8_>
  405170:	48 83 c4 10          	add    $0x10,%rsp
  405174:	5d                   	pop    %rbp
  405175:	c3                   	ret    
  405176:	66 2e 0f 1f 84 00 00 	cs nopw 0x0(%rax,%rax,1)
  40517d:	00 00 00 

0000000000405180 <_ZNSt8_Rb_treeINSt7__cxx1112basic_stringIcSt11char_traitsIcESaIcEEESt4pairIKS5_fESt10_Select1stIS8_ESt4lessIS5_ESaIS8_EE14_M_create_nodeERKS8_>:
  405180:	55                   	push   %rbp
  405181:	48 89 e5             	mov    %rsp,%rbp
  405184:	48 83 ec 20          	sub    $0x20,%rsp
  405188:	48 89 7d f8          	mov    %rdi,-0x8(%rbp)
  40518c:	48 89 75 f0          	mov    %rsi,-0x10(%rbp)
  405190:	48 8b 7d f8          	mov    -0x8(%rbp),%rdi
  405194:	48 89 7d e0          	mov    %rdi,-0x20(%rbp)
  405198:	e8 23 00 00 00       	call   4051c0 <_ZNSt8_Rb_treeINSt7__cxx1112basic_stringIcSt11char_traitsIcESaIcEEESt4pairIKS5_fESt10_Select1stIS8_ESt4lessIS5_ESaIS8_EE11_M_get_nodeEv>
  40519d:	48 8b 7d e0          	mov    -0x20(%rbp),%rdi
  4051a1:	48 89 45 e8          	mov    %rax,-0x18(%rbp)
  4051a5:	48 8b 75 e8          	mov    -0x18(%rbp),%rsi
  4051a9:	48 8b 55 f0          	mov    -0x10(%rbp),%rdx
  4051ad:	e8 3e 00 00 00       	call   4051f0 <_ZNSt8_Rb_treeINSt7__cxx1112basic_stringIcSt11char_traitsIcESaIcEEESt4pairIKS5_fESt10_Select1stIS8_ESt4lessIS5_ESaIS8_EE17_M_construct_nodeEPSt13_Rb_tree_nodeIS8_ERKS8_>
  4051b2:	48 8b 45 e8          	mov    -0x18(%rbp),%rax
  4051b6:	48 83 c4 20          	add    $0x20,%rsp
  4051ba:	5d                   	pop    %rbp
  4051bb:	c3                   	ret    
  4051bc:	0f 1f 40 00          	nopl   0x0(%rax)

00000000004051c0 <_ZNSt8_Rb_treeINSt7__cxx1112basic_stringIcSt11char_traitsIcESaIcEEESt4pairIKS5_fESt10_Select1stIS8_ESt4lessIS5_ESaIS8_EE11_M_get_nodeEv>:
  4051c0:	55                   	push   %rbp
  4051c1:	48 89 e5             	mov    %rsp,%rbp
  4051c4:	48 83 ec 10          	sub    $0x10,%rsp
  4051c8:	48 89 7d f8          	mov    %rdi,-0x8(%rbp)
  4051cc:	48 8b 7d f8          	mov    -0x8(%rbp),%rdi
  4051d0:	e8 eb f7 ff ff       	call   4049c0 <_ZNSt8_Rb_treeINSt7__cxx1112basic_stringIcSt11char_traitsIcESaIcEEESt4pairIKS5_fESt10_Select1stIS8_ESt4lessIS5_ESaIS8_EE21_M_get_Node_allocatorEv>
  4051d5:	48 89 c7             	mov    %rax,%rdi
  4051d8:	be 01 00 00 00       	mov    $0x1,%esi
  4051dd:	e8 fe 00 00 00       	call   4052e0 <_ZN9__gnu_cxx14__alloc_traitsISaISt13_Rb_tree_nodeISt4pairIKNSt7__cxx1112basic_stringIcSt11char_traitsIcESaIcEEEfEEESB_E8allocateERSC_m>
  4051e2:	48 83 c4 10          	add    $0x10,%rsp
  4051e6:	5d                   	pop    %rbp
  4051e7:	c3                   	ret    
  4051e8:	0f 1f 84 00 00 00 00 	nopl   0x0(%rax,%rax,1)
  4051ef:	00 

00000000004051f0 <_ZNSt8_Rb_treeINSt7__cxx1112basic_stringIcSt11char_traitsIcESaIcEEESt4pairIKS5_fESt10_Select1stIS8_ESt4lessIS5_ESaIS8_EE17_M_construct_nodeEPSt13_Rb_tree_nodeIS8_ERKS8_>:
  4051f0:	55                   	push   %rbp
  4051f1:	48 89 e5             	mov    %rsp,%rbp
  4051f4:	48 83 ec 50          	sub    $0x50,%rsp
  4051f8:	48 89 d1             	mov    %rdx,%rcx
  4051fb:	48 89 7d f8          	mov    %rdi,-0x8(%rbp)
  4051ff:	48 89 75 f0          	mov    %rsi,-0x10(%rbp)
  405203:	48 89 4d e8          	mov    %rcx,-0x18(%rbp)
  405207:	48 8b 75 f8          	mov    -0x8(%rbp),%rsi
  40520b:	48 89 75 c8          	mov    %rsi,-0x38(%rbp)
  40520f:	48 8d 7d e0          	lea    -0x20(%rbp),%rdi
  405213:	e8 78 f6 ff ff       	call   404890 <_ZNKSt8_Rb_treeINSt7__cxx1112basic_stringIcSt11char_traitsIcESaIcEEESt4pairIKS5_fESt10_Select1stIS8_ESt4lessIS5_ESaIS8_EE13get_allocatorEv>
  405218:	e9 00 00 00 00       	jmp    40521d <_ZNSt8_Rb_treeINSt7__cxx1112basic_stringIcSt11char_traitsIcESaIcEEESt4pairIKS5_fESt10_Select1stIS8_ESt4lessIS5_ESaIS8_EE17_M_construct_nodeEPSt13_Rb_tree_nodeIS8_ERKS8_+0x2d>
  40521d:	48 8d 45 e0          	lea    -0x20(%rbp),%rax
  405221:	48 89 45 b8          	mov    %rax,-0x48(%rbp)
  405225:	48 8b 7d f0          	mov    -0x10(%rbp),%rdi
  405229:	e8 c2 f6 ff ff       	call   4048f0 <_ZNSt13_Rb_tree_nodeISt4pairIKNSt7__cxx1112basic_stringIcSt11char_traitsIcESaIcEEEfEE9_M_valptrEv>
  40522e:	48 89 c1             	mov    %rax,%rcx
  405231:	48 89 4d c0          	mov    %rcx,-0x40(%rbp)
  405235:	e9 00 00 00 00       	jmp    40523a <_ZNSt8_Rb_treeINSt7__cxx1112basic_stringIcSt11char_traitsIcESaIcEEESt4pairIKS5_fESt10_Select1stIS8_ESt4lessIS5_ESaIS8_EE17_M_construct_nodeEPSt13_Rb_tree_nodeIS8_ERKS8_+0x4a>
  40523a:	48 8b 75 c0          	mov    -0x40(%rbp),%rsi
  40523e:	48 8b 7d b8          	mov    -0x48(%rbp),%rdi
  405242:	48 8b 55 e8          	mov    -0x18(%rbp),%rdx
  405246:	e8 55 01 00 00       	call   4053a0 <_ZNSt15__new_allocatorISt4pairIKNSt7__cxx1112basic_stringIcSt11char_traitsIcESaIcEEEfEE9constructEPS8_RKS8_>
  40524b:	e9 00 00 00 00       	jmp    405250 <_ZNSt8_Rb_treeINSt7__cxx1112basic_stringIcSt11char_traitsIcESaIcEEESt4pairIKS5_fESt10_Select1stIS8_ESt4lessIS5_ESaIS8_EE17_M_construct_nodeEPSt13_Rb_tree_nodeIS8_ERKS8_+0x60>
  405250:	48 8d 7d e0          	lea    -0x20(%rbp),%rdi
  405254:	e8 b7 f6 ff ff       	call   404910 <_ZNSaISt4pairIKNSt7__cxx1112basic_stringIcSt11char_traitsIcESaIcEEEfEED2Ev>
  405259:	e9 67 00 00 00       	jmp    4052c5 <_ZNSt8_Rb_treeINSt7__cxx1112basic_stringIcSt11char_traitsIcESaIcEEESt4pairIKS5_fESt10_Select1stIS8_ESt4lessIS5_ESaIS8_EE17_M_construct_nodeEPSt13_Rb_tree_nodeIS8_ERKS8_+0xd5>
  40525e:	48 89 c1             	mov    %rax,%rcx
  405261:	89 d0                	mov    %edx,%eax
  405263:	48 89 4d d8          	mov    %rcx,-0x28(%rbp)
  405267:	89 45 d4             	mov    %eax,-0x2c(%rbp)
  40526a:	e9 15 00 00 00       	jmp    405284 <_ZNSt8_Rb_treeINSt7__cxx1112basic_stringIcSt11char_traitsIcESaIcEEESt4pairIKS5_fESt10_Select1stIS8_ESt4lessIS5_ESaIS8_EE17_M_construct_nodeEPSt13_Rb_tree_nodeIS8_ERKS8_+0x94>
  40526f:	48 89 c1             	mov    %rax,%rcx
  405272:	89 d0                	mov    %edx,%eax
  405274:	48 89 4d d8          	mov    %rcx,-0x28(%rbp)
  405278:	89 45 d4             	mov    %eax,-0x2c(%rbp)
  40527b:	48 8d 7d e0          	lea    -0x20(%rbp),%rdi
  40527f:	e8 8c f6 ff ff       	call   404910 <_ZNSaISt4pairIKNSt7__cxx1112basic_stringIcSt11char_traitsIcESaIcEEEfEED2Ev>
  405284:	48 8b 7d d8          	mov    -0x28(%rbp),%rdi
  405288:	e8 43 ce ff ff       	call   4020d0 <__cxa_begin_catch@plt>
  40528d:	48 8b 7d c8          	mov    -0x38(%rbp),%rdi
  405291:	48 8b 75 f0          	mov    -0x10(%rbp),%rsi
  405295:	e8 c6 f5 ff ff       	call   404860 <_ZNSt8_Rb_treeINSt7__cxx1112basic_stringIcSt11char_traitsIcESaIcEEESt4pairIKS5_fESt10_Select1stIS8_ESt4lessIS5_ESaIS8_EE11_M_put_nodeEPSt13_Rb_tree_nodeIS8_E>
  40529a:	e9 00 00 00 00       	jmp    40529f <_ZNSt8_Rb_treeINSt7__cxx1112basic_stringIcSt11char_traitsIcESaIcEEESt4pairIKS5_fESt10_Select1stIS8_ESt4lessIS5_ESaIS8_EE17_M_construct_nodeEPSt13_Rb_tree_nodeIS8_ERKS8_+0xaf>
  40529f:	e8 ec cf ff ff       	call   402290 <__cxa_rethrow@plt>
  4052a4:	e9 33 00 00 00       	jmp    4052dc <_ZNSt8_Rb_treeINSt7__cxx1112basic_stringIcSt11char_traitsIcESaIcEEESt4pairIKS5_fESt10_Select1stIS8_ESt4lessIS5_ESaIS8_EE17_M_construct_nodeEPSt13_Rb_tree_nodeIS8_ERKS8_+0xec>
  4052a9:	48 89 d1             	mov    %rdx,%rcx
  4052ac:	48 89 c6             	mov    %rax,%rsi
  4052af:	48 89 75 d8          	mov    %rsi,-0x28(%rbp)
  4052b3:	89 4d d4             	mov    %ecx,-0x2c(%rbp)
  4052b6:	e8 35 d0 ff ff       	call   4022f0 <__cxa_end_catch@plt>
  4052bb:	e9 00 00 00 00       	jmp    4052c0 <_ZNSt8_Rb_treeINSt7__cxx1112basic_stringIcSt11char_traitsIcESaIcEEESt4pairIKS5_fESt10_Select1stIS8_ESt4lessIS5_ESaIS8_EE17_M_construct_nodeEPSt13_Rb_tree_nodeIS8_ERKS8_+0xd0>
  4052c0:	e9 06 00 00 00       	jmp    4052cb <_ZNSt8_Rb_treeINSt7__cxx1112basic_stringIcSt11char_traitsIcESaIcEEESt4pairIKS5_fESt10_Select1stIS8_ESt4lessIS5_ESaIS8_EE17_M_construct_nodeEPSt13_Rb_tree_nodeIS8_ERKS8_+0xdb>
  4052c5:	48 83 c4 50          	add    $0x50,%rsp
  4052c9:	5d                   	pop    %rbp
  4052ca:	c3                   	ret    
  4052cb:	48 8b 7d d8          	mov    -0x28(%rbp),%rdi
  4052cf:	e8 4c d0 ff ff       	call   402320 <_Unwind_Resume@plt>
  4052d4:	48 89 c7             	mov    %rax,%rdi
  4052d7:	e8 34 d4 ff ff       	call   402710 <__clang_call_terminate>
  4052dc:	0f 1f 40 00          	nopl   0x0(%rax)

00000000004052e0 <_ZN9__gnu_cxx14__alloc_traitsISaISt13_Rb_tree_nodeISt4pairIKNSt7__cxx1112basic_stringIcSt11char_traitsIcESaIcEEEfEEESB_E8allocateERSC_m>:
  4052e0:	55                   	push   %rbp
  4052e1:	48 89 e5             	mov    %rsp,%rbp
  4052e4:	48 83 ec 10          	sub    $0x10,%rsp
  4052e8:	48 89 7d f8          	mov    %rdi,-0x8(%rbp)
  4052ec:	48 89 75 f0          	mov    %rsi,-0x10(%rbp)
  4052f0:	48 8b 7d f8          	mov    -0x8(%rbp),%rdi
  4052f4:	48 8b 75 f0          	mov    -0x10(%rbp),%rsi
  4052f8:	31 c0                	xor    %eax,%eax
  4052fa:	89 c2                	mov    %eax,%edx
  4052fc:	e8 0f 00 00 00       	call   405310 <_ZNSt15__new_allocatorISt13_Rb_tree_nodeISt4pairIKNSt7__cxx1112basic_stringIcSt11char_traitsIcESaIcEEEfEEE8allocateEmPKv>
  405301:	48 83 c4 10          	add    $0x10,%rsp
  405305:	5d                   	pop    %rbp
  405306:	c3                   	ret    
  405307:	66 0f 1f 84 00 00 00 	nopw   0x0(%rax,%rax,1)
  40530e:	00 00 

0000000000405310 <_ZNSt15__new_allocatorISt13_Rb_tree_nodeISt4pairIKNSt7__cxx1112basic_stringIcSt11char_traitsIcESaIcEEEfEEE8allocateEmPKv>:
  405310:	55                   	push   %rbp
  405311:	48 89 e5             	mov    %rsp,%rbp
  405314:	48 83 ec 20          	sub    $0x20,%rsp
  405318:	48 89 7d f8          	mov    %rdi,-0x8(%rbp)
  40531c:	48 89 75 f0          	mov    %rsi,-0x10(%rbp)
  405320:	48 89 55 e8          	mov    %rdx,-0x18(%rbp)
  405324:	48 8b 7d f8          	mov    -0x8(%rbp),%rdi
  405328:	48 8b 45 f0          	mov    -0x10(%rbp),%rax
  40532c:	48 89 45 e0          	mov    %rax,-0x20(%rbp)
  405330:	e8 4b 00 00 00       	call   405380 <_ZNKSt15__new_allocatorISt13_Rb_tree_nodeISt4pairIKNSt7__cxx1112basic_stringIcSt11char_traitsIcESaIcEEEfEEE11_M_max_sizeEv>
  405335:	48 89 c1             	mov    %rax,%rcx
  405338:	48 8b 45 e0          	mov    -0x20(%rbp),%rax
  40533c:	48 39 c8             	cmp    %rcx,%rax
  40533f:	0f 86 1e 00 00 00    	jbe    405363 <_ZNSt15__new_allocatorISt13_Rb_tree_nodeISt4pairIKNSt7__cxx1112basic_stringIcSt11char_traitsIcESaIcEEEfEEE8allocateEmPKv+0x53>
  405345:	48 b8 8e e3 38 8e e3 	movabs $0x38e38e38e38e38e,%rax
  40534c:	38 8e 03 
  40534f:	48 39 45 f0          	cmp    %rax,-0x10(%rbp)
  405353:	0f 86 05 00 00 00    	jbe    40535e <_ZNSt15__new_allocatorISt13_Rb_tree_nodeISt4pairIKNSt7__cxx1112basic_stringIcSt11char_traitsIcESaIcEEEfEEE8allocateEmPKv+0x4e>
  405359:	e8 02 ce ff ff       	call   402160 <_ZSt28__throw_bad_array_new_lengthv@plt>
  40535e:	e8 5d cd ff ff       	call   4020c0 <_ZSt17__throw_bad_allocv@plt>
  405363:	48 6b 7d f0 48       	imul   $0x48,-0x10(%rbp),%rdi
  405368:	e8 63 ce ff ff       	call   4021d0 <_Znwm@plt>
  40536d:	48 83 c4 20          	add    $0x20,%rsp
  405371:	5d                   	pop    %rbp
  405372:	c3                   	ret    
  405373:	66 2e 0f 1f 84 00 00 	cs nopw 0x0(%rax,%rax,1)
  40537a:	00 00 00 
  40537d:	0f 1f 00             	nopl   (%rax)

0000000000405380 <_ZNKSt15__new_allocatorISt13_Rb_tree_nodeISt4pairIKNSt7__cxx1112basic_stringIcSt11char_traitsIcESaIcEEEfEEE11_M_max_sizeEv>:
  405380:	55                   	push   %rbp
  405381:	48 89 e5             	mov    %rsp,%rbp
  405384:	48 89 7d f8          	mov    %rdi,-0x8(%rbp)
  405388:	48 b8 c7 71 1c c7 71 	movabs $0x1c71c71c71c71c7,%rax
  40538f:	1c c7 01 
  405392:	5d                   	pop    %rbp
  405393:	c3                   	ret    
  405394:	66 2e 0f 1f 84 00 00 	cs nopw 0x0(%rax,%rax,1)
  40539b:	00 00 00 
  40539e:	66 90                	xchg   %ax,%ax

00000000004053a0 <_ZNSt15__new_allocatorISt4pairIKNSt7__cxx1112basic_stringIcSt11char_traitsIcESaIcEEEfEE9constructEPS8_RKS8_>:
  4053a0:	55                   	push   %rbp
  4053a1:	48 89 e5             	mov    %rsp,%rbp
  4053a4:	48 83 ec 20          	sub    $0x20,%rsp
  4053a8:	48 89 7d f8          	mov    %rdi,-0x8(%rbp)
  4053ac:	48 89 75 f0          	mov    %rsi,-0x10(%rbp)
  4053b0:	48 89 55 e8          	mov    %rdx,-0x18(%rbp)
  4053b4:	48 8b 7d f0          	mov    -0x10(%rbp),%rdi
  4053b8:	48 8b 75 e8          	mov    -0x18(%rbp),%rsi
  4053bc:	e8 0f 00 00 00       	call   4053d0 <_ZNSt4pairIKNSt7__cxx1112basic_stringIcSt11char_traitsIcESaIcEEEfEC2ERKS7_>
  4053c1:	48 83 c4 20          	add    $0x20,%rsp
  4053c5:	5d                   	pop    %rbp
  4053c6:	c3                   	ret    
  4053c7:	66 0f 1f 84 00 00 00 	nopw   0x0(%rax,%rax,1)
  4053ce:	00 00 

00000000004053d0 <_ZNSt4pairIKNSt7__cxx1112basic_stringIcSt11char_traitsIcESaIcEEEfEC2ERKS7_>:
  4053d0:	55                   	push   %rbp
  4053d1:	48 89 e5             	mov    %rsp,%rbp
  4053d4:	48 83 ec 20          	sub    $0x20,%rsp
  4053d8:	48 89 7d f8          	mov    %rdi,-0x8(%rbp)
  4053dc:	48 89 75 f0          	mov    %rsi,-0x10(%rbp)
  4053e0:	48 8b 7d f8          	mov    -0x8(%rbp),%rdi
  4053e4:	48 89 7d e8          	mov    %rdi,-0x18(%rbp)
  4053e8:	48 8b 75 f0          	mov    -0x10(%rbp),%rsi
  4053ec:	e8 ff cc ff ff       	call   4020f0 <_ZNSt7__cxx1112basic_stringIcSt11char_traitsIcESaIcEEC1ERKS4_@plt>
  4053f1:	48 8b 45 e8          	mov    -0x18(%rbp),%rax
  4053f5:	48 8b 4d f0          	mov    -0x10(%rbp),%rcx
  4053f9:	f3 0f 10 41 20       	movss  0x20(%rcx),%xmm0
  4053fe:	f3 0f 11 40 20       	movss  %xmm0,0x20(%rax)
  405403:	48 83 c4 20          	add    $0x20,%rsp
  405407:	5d                   	pop    %rbp
  405408:	c3                   	ret    
  405409:	0f 1f 80 00 00 00 00 	nopl   0x0(%rax)

0000000000405410 <_ZNSt8_Rb_treeINSt7__cxx1112basic_stringIcSt11char_traitsIcESaIcEEESt4pairIKS5_fESt10_Select1stIS8_ESt4lessIS5_ESaIS8_EEaSERKSE_>:
  405410:	55                   	push   %rbp
  405411:	48 89 e5             	mov    %rsp,%rbp
  405414:	48 83 ec 60          	sub    $0x60,%rsp
  405418:	48 89 7d f8          	mov    %rdi,-0x8(%rbp)
  40541c:	48 89 75 f0          	mov    %rsi,-0x10(%rbp)
  405420:	48 8b 45 f8          	mov    -0x8(%rbp),%rax
  405424:	48 89 45 c0          	mov    %rax,-0x40(%rbp)
  405428:	48 8b 7d f0          	mov    -0x10(%rbp),%rdi
  40542c:	e8 ef 00 00 00       	call   405520 <_ZSt11__addressofIKSt8_Rb_treeINSt7__cxx1112basic_stringIcSt11char_traitsIcESaIcEEESt4pairIKS6_fESt10_Select1stIS9_ESt4lessIS6_ESaIS9_EEEPT_RSH_>
  405431:	48 89 c1             	mov    %rax,%rcx
  405434:	48 8b 45 c0          	mov    -0x40(%rbp),%rax
  405438:	48 39 c8             	cmp    %rcx,%rax
  40543b:	0f 84 b5 00 00 00    	je     4054f6 <_ZNSt8_Rb_treeINSt7__cxx1112basic_stringIcSt11char_traitsIcESaIcEEESt4pairIKS5_fESt10_Select1stIS8_ESt4lessIS5_ESaIS8_EEaSERKSE_+0xe6>
  405441:	48 8b 75 c0          	mov    -0x40(%rbp),%rsi
  405445:	48 8d 7d d8          	lea    -0x28(%rbp),%rdi
  405449:	e8 e2 00 00 00       	call   405530 <_ZNSt8_Rb_treeINSt7__cxx1112basic_stringIcSt11char_traitsIcESaIcEEESt4pairIKS5_fESt10_Select1stIS8_ESt4lessIS5_ESaIS8_EE20_Reuse_or_alloc_nodeC2ERSE_>
  40544e:	48 8b 7d c0          	mov    -0x40(%rbp),%rdi
  405452:	48 83 c7 08          	add    $0x8,%rdi
  405456:	e8 e5 f6 ff ff       	call   404b40 <_ZNSt15_Rb_tree_header8_M_resetEv>
  40545b:	48 8b 7d f0          	mov    -0x10(%rbp),%rdi
  40545f:	e8 6c 01 00 00       	call   4055d0 <_ZNKSt8_Rb_treeINSt7__cxx1112basic_stringIcSt11char_traitsIcESaIcEEESt4pairIKS5_fESt10_Select1stIS8_ESt4lessIS5_ESaIS8_EE7_M_rootEv>
  405464:	48 89 c1             	mov    %rax,%rcx
  405467:	48 89 4d b8          	mov    %rcx,-0x48(%rbp)
  40546b:	e9 00 00 00 00       	jmp    405470 <_ZNSt8_Rb_treeINSt7__cxx1112basic_stringIcSt11char_traitsIcESaIcEEESt4pairIKS5_fESt10_Select1stIS8_ESt4lessIS5_ESaIS8_EEaSERKSE_+0x60>
  405470:	48 8b 45 b8          	mov    -0x48(%rbp),%rax
  405474:	48 83 f8 00          	cmp    $0x0,%rax
  405478:	0f 84 65 00 00 00    	je     4054e3 <_ZNSt8_Rb_treeINSt7__cxx1112basic_stringIcSt11char_traitsIcESaIcEEESt4pairIKS5_fESt10_Select1stIS8_ESt4lessIS5_ESaIS8_EEaSERKSE_+0xd3>
  40547e:	48 8b 7d c0          	mov    -0x40(%rbp),%rdi
  405482:	48 8b 75 f0          	mov    -0x10(%rbp),%rsi
  405486:	48 8d 55 d8          	lea    -0x28(%rbp),%rdx
  40548a:	e8 61 01 00 00       	call   4055f0 <_ZNSt8_Rb_treeINSt7__cxx1112basic_stringIcSt11char_traitsIcESaIcEEESt4pairIKS5_fESt10_Select1stIS8_ESt4lessIS5_ESaIS8_EE7_M_copyILb0ENSE_20_Reuse_or_alloc_nodeEEEPSt13_Rb_tree_nodeIS8_ERKSE_RT0_>
  40548f:	48 89 c1             	mov    %rax,%rcx
  405492:	48 89 4d b0          	mov    %rcx,-0x50(%rbp)
  405496:	e9 00 00 00 00       	jmp    40549b <_ZNSt8_Rb_treeINSt7__cxx1112basic_stringIcSt11char_traitsIcESaIcEEESt4pairIKS5_fESt10_Select1stIS8_ESt4lessIS5_ESaIS8_EEaSERKSE_+0x8b>
  40549b:	48 8b 7d c0          	mov    -0x40(%rbp),%rdi
  40549f:	48 8b 45 b0          	mov    -0x50(%rbp),%rax
  4054a3:	48 89 45 a0          	mov    %rax,-0x60(%rbp)
  4054a7:	e8 f4 01 00 00       	call   4056a0 <_ZNSt8_Rb_treeINSt7__cxx1112basic_stringIcSt11char_traitsIcESaIcEEESt4pairIKS5_fESt10_Select1stIS8_ESt4lessIS5_ESaIS8_EE7_M_rootEv>
  4054ac:	48 89 c1             	mov    %rax,%rcx
  4054af:	48 89 4d a8          	mov    %rcx,-0x58(%rbp)
  4054b3:	e9 00 00 00 00       	jmp    4054b8 <_ZNSt8_Rb_treeINSt7__cxx1112basic_stringIcSt11char_traitsIcESaIcEEESt4pairIKS5_fESt10_Select1stIS8_ESt4lessIS5_ESaIS8_EEaSERKSE_+0xa8>
  4054b8:	48 8b 45 a8          	mov    -0x58(%rbp),%rax
  4054bc:	48 8b 4d a0          	mov    -0x60(%rbp),%rcx
  4054c0:	48 89 08             	mov    %rcx,(%rax)
  4054c3:	e9 1b 00 00 00       	jmp    4054e3 <_ZNSt8_Rb_treeINSt7__cxx1112basic_stringIcSt11char_traitsIcESaIcEEESt4pairIKS5_fESt10_Select1stIS8_ESt4lessIS5_ESaIS8_EEaSERKSE_+0xd3>
  4054c8:	48 89 d1             	mov    %rdx,%rcx
  4054cb:	48 89 c6             	mov    %rax,%rsi
  4054ce:	48 89 75 d0          	mov    %rsi,-0x30(%rbp)
  4054d2:	89 4d cc             	mov    %ecx,-0x34(%rbp)
  4054d5:	48 8d 7d d8          	lea    -0x28(%rbp),%rdi
  4054d9:	e8 e2 01 00 00       	call   4056c0 <_ZNSt8_Rb_treeINSt7__cxx1112basic_stringIcSt11char_traitsIcESaIcEEESt4pairIKS5_fESt10_Select1stIS8_ESt4lessIS5_ESaIS8_EE20_Reuse_or_alloc_nodeD2Ev>
  4054de:	e9 0e 00 00 00       	jmp    4054f1 <_ZNSt8_Rb_treeINSt7__cxx1112basic_stringIcSt11char_traitsIcESaIcEEESt4pairIKS5_fESt10_Select1stIS8_ESt4lessIS5_ESaIS8_EEaSERKSE_+0xe1>
  4054e3:	48 8d 7d d8          	lea    -0x28(%rbp),%rdi
  4054e7:	e8 d4 01 00 00       	call   4056c0 <_ZNSt8_Rb_treeINSt7__cxx1112basic_stringIcSt11char_traitsIcESaIcEEESt4pairIKS5_fESt10_Select1stIS8_ESt4lessIS5_ESaIS8_EE20_Reuse_or_alloc_nodeD2Ev>
  4054ec:	e9 05 00 00 00       	jmp    4054f6 <_ZNSt8_Rb_treeINSt7__cxx1112basic_stringIcSt11char_traitsIcESaIcEEESt4pairIKS5_fESt10_Select1stIS8_ESt4lessIS5_ESaIS8_EEaSERKSE_+0xe6>
  4054f1:	e9 0a 00 00 00       	jmp    405500 <_ZNSt8_Rb_treeINSt7__cxx1112basic_stringIcSt11char_traitsIcESaIcEEESt4pairIKS5_fESt10_Select1stIS8_ESt4lessIS5_ESaIS8_EEaSERKSE_+0xf0>
  4054f6:	48 8b 45 c0          	mov    -0x40(%rbp),%rax
  4054fa:	48 83 c4 60          	add    $0x60,%rsp
  4054fe:	5d                   	pop    %rbp
  4054ff:	c3                   	ret    
  405500:	48 8b 7d d0          	mov    -0x30(%rbp),%rdi
  405504:	e8 17 ce ff ff       	call   402320 <_Unwind_Resume@plt>
  405509:	48 89 c7             	mov    %rax,%rdi
  40550c:	e8 ff d1 ff ff       	call   402710 <__clang_call_terminate>
  405511:	66 2e 0f 1f 84 00 00 	cs nopw 0x0(%rax,%rax,1)
  405518:	00 00 00 
  40551b:	0f 1f 44 00 00       	nopl   0x0(%rax,%rax,1)

0000000000405520 <_ZSt11__addressofIKSt8_Rb_treeINSt7__cxx1112basic_stringIcSt11char_traitsIcESaIcEEESt4pairIKS6_fESt10_Select1stIS9_ESt4lessIS6_ESaIS9_EEEPT_RSH_>:
  405520:	55                   	push   %rbp
  405521:	48 89 e5             	mov    %rsp,%rbp
  405524:	48 89 7d f8          	mov    %rdi,-0x8(%rbp)
  405528:	48 8b 45 f8          	mov    -0x8(%rbp),%rax
  40552c:	5d                   	pop    %rbp
  40552d:	c3                   	ret    
  40552e:	66 90                	xchg   %ax,%ax

0000000000405530 <_ZNSt8_Rb_treeINSt7__cxx1112basic_stringIcSt11char_traitsIcESaIcEEESt4pairIKS5_fESt10_Select1stIS8_ESt4lessIS5_ESaIS8_EE20_Reuse_or_alloc_nodeC2ERSE_>:
  405530:	55                   	push   %rbp
  405531:	48 89 e5             	mov    %rsp,%rbp
  405534:	48 83 ec 20          	sub    $0x20,%rsp
  405538:	48 89 7d f8          	mov    %rdi,-0x8(%rbp)
  40553c:	48 89 75 f0          	mov    %rsi,-0x10(%rbp)
  405540:	48 8b 45 f8          	mov    -0x8(%rbp),%rax
  405544:	48 89 45 e8          	mov    %rax,-0x18(%rbp)
  405548:	48 8b 7d f0          	mov    -0x10(%rbp),%rdi
  40554c:	e8 4f 01 00 00       	call   4056a0 <_ZNSt8_Rb_treeINSt7__cxx1112basic_stringIcSt11char_traitsIcESaIcEEESt4pairIKS5_fESt10_Select1stIS8_ESt4lessIS5_ESaIS8_EE7_M_rootEv>
  405551:	48 89 c1             	mov    %rax,%rcx
  405554:	48 8b 45 e8          	mov    -0x18(%rbp),%rax
  405558:	48 8b 09             	mov    (%rcx),%rcx
  40555b:	48 89 08             	mov    %rcx,(%rax)
  40555e:	48 8b 7d f0          	mov    -0x10(%rbp),%rdi
  405562:	e8 89 01 00 00       	call   4056f0 <_ZNSt8_Rb_treeINSt7__cxx1112basic_stringIcSt11char_traitsIcESaIcEEESt4pairIKS5_fESt10_Select1stIS8_ESt4lessIS5_ESaIS8_EE12_M_rightmostEv>
  405567:	48 89 c1             	mov    %rax,%rcx
  40556a:	48 8b 45 e8          	mov    -0x18(%rbp),%rax
  40556e:	48 8b 09             	mov    (%rcx),%rcx
  405571:	48 89 48 08          	mov    %rcx,0x8(%rax)
  405575:	48 8b 4d f0          	mov    -0x10(%rbp),%rcx
  405579:	48 89 48 10          	mov    %rcx,0x10(%rax)
  40557d:	48 83 38 00          	cmpq   $0x0,(%rax)
  405581:	0f 84 33 00 00 00    	je     4055ba <_ZNSt8_Rb_treeINSt7__cxx1112basic_stringIcSt11char_traitsIcESaIcEEESt4pairIKS5_fESt10_Select1stIS8_ESt4lessIS5_ESaIS8_EE20_Reuse_or_alloc_nodeC2ERSE_+0x8a>
  405587:	48 8b 45 e8          	mov    -0x18(%rbp),%rax
  40558b:	48 8b 08             	mov    (%rax),%rcx
  40558e:	48 c7 41 08 00 00 00 	movq   $0x0,0x8(%rcx)
  405595:	00 
  405596:	48 8b 40 08          	mov    0x8(%rax),%rax
  40559a:	48 83 78 10 00       	cmpq   $0x0,0x10(%rax)
  40559f:	0f 84 10 00 00 00    	je     4055b5 <_ZNSt8_Rb_treeINSt7__cxx1112basic_stringIcSt11char_traitsIcESaIcEEESt4pairIKS5_fESt10_Select1stIS8_ESt4lessIS5_ESaIS8_EE20_Reuse_or_alloc_nodeC2ERSE_+0x85>
  4055a5:	48 8b 45 e8          	mov    -0x18(%rbp),%rax
  4055a9:	48 8b 48 08          	mov    0x8(%rax),%rcx
  4055ad:	48 8b 49 10          	mov    0x10(%rcx),%rcx
  4055b1:	48 89 48 08          	mov    %rcx,0x8(%rax)
  4055b5:	e9 0c 00 00 00       	jmp    4055c6 <_ZNSt8_Rb_treeINSt7__cxx1112basic_stringIcSt11char_traitsIcESaIcEEESt4pairIKS5_fESt10_Select1stIS8_ESt4lessIS5_ESaIS8_EE20_Reuse_or_alloc_nodeC2ERSE_+0x96>
  4055ba:	48 8b 45 e8          	mov    -0x18(%rbp),%rax
  4055be:	48 c7 40 08 00 00 00 	movq   $0x0,0x8(%rax)
  4055c5:	00 
  4055c6:	48 83 c4 20          	add    $0x20,%rsp
  4055ca:	5d                   	pop    %rbp
  4055cb:	c3                   	ret    
  4055cc:	0f 1f 40 00          	nopl   0x0(%rax)

00000000004055d0 <_ZNKSt8_Rb_treeINSt7__cxx1112basic_stringIcSt11char_traitsIcESaIcEEESt4pairIKS5_fESt10_Select1stIS8_ESt4lessIS5_ESaIS8_EE7_M_rootEv>:
  4055d0:	55                   	push   %rbp
  4055d1:	48 89 e5             	mov    %rsp,%rbp
  4055d4:	48 89 7d f8          	mov    %rdi,-0x8(%rbp)
  4055d8:	48 8b 45 f8          	mov    -0x8(%rbp),%rax
  4055dc:	48 8b 40 10          	mov    0x10(%rax),%rax
  4055e0:	5d                   	pop    %rbp
  4055e1:	c3                   	ret    
  4055e2:	66 2e 0f 1f 84 00 00 	cs nopw 0x0(%rax,%rax,1)
  4055e9:	00 00 00 
  4055ec:	0f 1f 40 00          	nopl   0x0(%rax)

00000000004055f0 <_ZNSt8_Rb_treeINSt7__cxx1112basic_stringIcSt11char_traitsIcESaIcEEESt4pairIKS5_fESt10_Select1stIS8_ESt4lessIS5_ESaIS8_EE7_M_copyILb0ENSE_20_Reuse_or_alloc_nodeEEEPSt13_Rb_tree_nodeIS8_ERKSE_RT0_>:
  4055f0:	55                   	push   %rbp
  4055f1:	48 89 e5             	mov    %rsp,%rbp
  4055f4:	48 83 ec 40          	sub    $0x40,%rsp
  4055f8:	48 89 7d f8          	mov    %rdi,-0x8(%rbp)
  4055fc:	48 89 75 f0          	mov    %rsi,-0x10(%rbp)
  405600:	48 89 55 e8          	mov    %rdx,-0x18(%rbp)
  405604:	48 8b 45 f8          	mov    -0x8(%rbp),%rax
  405608:	48 89 45 d8          	mov    %rax,-0x28(%rbp)
  40560c:	48 8b 7d f0          	mov    -0x10(%rbp),%rdi
  405610:	e8 eb f3 ff ff       	call   404a00 <_ZNKSt8_Rb_treeINSt7__cxx1112basic_stringIcSt11char_traitsIcESaIcEEESt4pairIKS5_fESt10_Select1stIS8_ESt4lessIS5_ESaIS8_EE9_M_mbeginEv>
  405615:	48 8b 7d d8          	mov    -0x28(%rbp),%rdi
  405619:	48 89 45 c0          	mov    %rax,-0x40(%rbp)
  40561d:	e8 6e f9 ff ff       	call   404f90 <_ZNSt8_Rb_treeINSt7__cxx1112basic_stringIcSt11char_traitsIcESaIcEEESt4pairIKS5_fESt10_Select1stIS8_ESt4lessIS5_ESaIS8_EE6_M_endEv>
  405622:	48 8b 75 c0          	mov    -0x40(%rbp),%rsi
  405626:	48 8b 7d d8          	mov    -0x28(%rbp),%rdi
  40562a:	48 89 c2             	mov    %rax,%rdx
  40562d:	48 8b 4d e8          	mov    -0x18(%rbp),%rcx
  405631:	e8 da 00 00 00       	call   405710 <_ZNSt8_Rb_treeINSt7__cxx1112basic_stringIcSt11char_traitsIcESaIcEEESt4pairIKS5_fESt10_Select1stIS8_ESt4lessIS5_ESaIS8_EE7_M_copyILb0ENSE_20_Reuse_or_alloc_nodeEEEPSt13_Rb_tree_nodeIS8_ESJ_PSt18_Rb_tree_node_baseRT0_>
  405636:	48 89 45 e0          	mov    %rax,-0x20(%rbp)
  40563a:	48 8b 7d e0          	mov    -0x20(%rbp),%rdi
  40563e:	e8 7d 02 00 00       	call   4058c0 <_ZNSt8_Rb_treeINSt7__cxx1112basic_stringIcSt11char_traitsIcESaIcEEESt4pairIKS5_fESt10_Select1stIS8_ESt4lessIS5_ESaIS8_EE10_S_minimumEPSt18_Rb_tree_node_base>
  405643:	48 8b 7d d8          	mov    -0x28(%rbp),%rdi
  405647:	48 89 45 c8          	mov    %rax,-0x38(%rbp)
  40564b:	e8 90 02 00 00       	call   4058e0 <_ZNSt8_Rb_treeINSt7__cxx1112basic_stringIcSt11char_traitsIcESaIcEEESt4pairIKS5_fESt10_Select1stIS8_ESt4lessIS5_ESaIS8_EE11_M_leftmostEv>
  405650:	48 8b 4d c8          	mov    -0x38(%rbp),%rcx
  405654:	48 89 08             	mov    %rcx,(%rax)
  405657:	48 8b 7d e0          	mov    -0x20(%rbp),%rdi
  40565b:	e8 a0 02 00 00       	call   405900 <_ZNSt8_Rb_treeINSt7__cxx1112basic_stringIcSt11char_traitsIcESaIcEEESt4pairIKS5_fESt10_Select1stIS8_ESt4lessIS5_ESaIS8_EE10_S_maximumEPSt18_Rb_tree_node_base>
  405660:	48 8b 7d d8          	mov    -0x28(%rbp),%rdi
  405664:	48 89 45 d0          	mov    %rax,-0x30(%rbp)
  405668:	e8 83 00 00 00       	call   4056f0 <_ZNSt8_Rb_treeINSt7__cxx1112basic_stringIcSt11char_traitsIcESaIcEEESt4pairIKS5_fESt10_Select1stIS8_ESt4lessIS5_ESaIS8_EE12_M_rightmostEv>
  40566d:	48 8b 55 d0          	mov    -0x30(%rbp),%rdx
  405671:	48 89 c1             	mov    %rax,%rcx
  405674:	48 8b 45 d8          	mov    -0x28(%rbp),%rax
  405678:	48 89 11             	mov    %rdx,(%rcx)
  40567b:	48 8b 4d f0          	mov    -0x10(%rbp),%rcx
  40567f:	48 8b 49 28          	mov    0x28(%rcx),%rcx
  405683:	48 89 48 28          	mov    %rcx,0x28(%rax)
  405687:	48 8b 45 e0          	mov    -0x20(%rbp),%rax
  40568b:	48 83 c4 40          	add    $0x40,%rsp
  40568f:	5d                   	pop    %rbp
  405690:	c3                   	ret    
  405691:	66 2e 0f 1f 84 00 00 	cs nopw 0x0(%rax,%rax,1)
  405698:	00 00 00 
  40569b:	0f 1f 44 00 00       	nopl   0x0(%rax,%rax,1)

00000000004056a0 <_ZNSt8_Rb_treeINSt7__cxx1112basic_stringIcSt11char_traitsIcESaIcEEESt4pairIKS5_fESt10_Select1stIS8_ESt4lessIS5_ESaIS8_EE7_M_rootEv>:
  4056a0:	55                   	push   %rbp
  4056a1:	48 89 e5             	mov    %rsp,%rbp
  4056a4:	48 89 7d f8          	mov    %rdi,-0x8(%rbp)
  4056a8:	48 8b 45 f8          	mov    -0x8(%rbp),%rax
  4056ac:	48 83 c0 08          	add    $0x8,%rax
  4056b0:	48 83 c0 08          	add    $0x8,%rax
  4056b4:	5d                   	pop    %rbp
  4056b5:	c3                   	ret    
  4056b6:	66 2e 0f 1f 84 00 00 	cs nopw 0x0(%rax,%rax,1)
  4056bd:	00 00 00 

00000000004056c0 <_ZNSt8_Rb_treeINSt7__cxx1112basic_stringIcSt11char_traitsIcESaIcEEESt4pairIKS5_fESt10_Select1stIS8_ESt4lessIS5_ESaIS8_EE20_Reuse_or_alloc_nodeD2Ev>:
  4056c0:	55                   	push   %rbp
  4056c1:	48 89 e5             	mov    %rsp,%rbp
  4056c4:	48 83 ec 10          	sub    $0x10,%rsp
  4056c8:	48 89 7d f8          	mov    %rdi,-0x8(%rbp)
  4056cc:	48 8b 45 f8          	mov    -0x8(%rbp),%rax
  4056d0:	48 8b 78 10          	mov    0x10(%rax),%rdi
  4056d4:	48 8b 30             	mov    (%rax),%rsi
  4056d7:	e8 d4 ef ff ff       	call   4046b0 <_ZNSt8_Rb_treeINSt7__cxx1112basic_stringIcSt11char_traitsIcESaIcEEESt4pairIKS5_fESt10_Select1stIS8_ESt4lessIS5_ESaIS8_EE8_M_eraseEPSt13_Rb_tree_nodeIS8_E>
  4056dc:	48 83 c4 10          	add    $0x10,%rsp
  4056e0:	5d                   	pop    %rbp
  4056e1:	c3                   	ret    
  4056e2:	66 2e 0f 1f 84 00 00 	cs nopw 0x0(%rax,%rax,1)
  4056e9:	00 00 00 
  4056ec:	0f 1f 40 00          	nopl   0x0(%rax)

00000000004056f0 <_ZNSt8_Rb_treeINSt7__cxx1112basic_stringIcSt11char_traitsIcESaIcEEESt4pairIKS5_fESt10_Select1stIS8_ESt4lessIS5_ESaIS8_EE12_M_rightmostEv>:
  4056f0:	55                   	push   %rbp
  4056f1:	48 89 e5             	mov    %rsp,%rbp
  4056f4:	48 89 7d f8          	mov    %rdi,-0x8(%rbp)
  4056f8:	48 8b 45 f8          	mov    -0x8(%rbp),%rax
  4056fc:	48 83 c0 08          	add    $0x8,%rax
  405700:	48 83 c0 18          	add    $0x18,%rax
  405704:	5d                   	pop    %rbp
  405705:	c3                   	ret    
  405706:	66 2e 0f 1f 84 00 00 	cs nopw 0x0(%rax,%rax,1)
  40570d:	00 00 00 

0000000000405710 <_ZNSt8_Rb_treeINSt7__cxx1112basic_stringIcSt11char_traitsIcESaIcEEESt4pairIKS5_fESt10_Select1stIS8_ESt4lessIS5_ESaIS8_EE7_M_copyILb0ENSE_20_Reuse_or_alloc_nodeEEEPSt13_Rb_tree_nodeIS8_ESJ_PSt18_Rb_tree_node_baseRT0_>:
  405710:	55                   	push   %rbp
  405711:	48 89 e5             	mov    %rsp,%rbp
  405714:	48 83 ec 60          	sub    $0x60,%rsp
  405718:	48 89 7d f8          	mov    %rdi,-0x8(%rbp)
  40571c:	48 89 75 f0          	mov    %rsi,-0x10(%rbp)
  405720:	48 89 55 e8          	mov    %rdx,-0x18(%rbp)
  405724:	48 89 4d e0          	mov    %rcx,-0x20(%rbp)
  405728:	48 8b 7d f8          	mov    -0x8(%rbp),%rdi
  40572c:	48 89 7d b8          	mov    %rdi,-0x48(%rbp)
  405730:	48 8b 75 f0          	mov    -0x10(%rbp),%rsi
  405734:	48 8b 55 e0          	mov    -0x20(%rbp),%rdx
  405738:	e8 e3 01 00 00       	call   405920 <_ZNSt8_Rb_treeINSt7__cxx1112basic_stringIcSt11char_traitsIcESaIcEEESt4pairIKS5_fESt10_Select1stIS8_ESt4lessIS5_ESaIS8_EE13_M_clone_nodeILb0ENSE_20_Reuse_or_alloc_nodeEEEPSt13_Rb_tree_nodeIS8_ESJ_RT0_>
  40573d:	48 89 45 d8          	mov    %rax,-0x28(%rbp)
  405741:	48 8b 4d e8          	mov    -0x18(%rbp),%rcx
  405745:	48 8b 45 d8          	mov    -0x28(%rbp),%rax
  405749:	48 89 48 08          	mov    %rcx,0x8(%rax)
  40574d:	48 8b 45 f0          	mov    -0x10(%rbp),%rax
  405751:	48 83 78 18 00       	cmpq   $0x0,0x18(%rax)
  405756:	0f 84 6b 00 00 00    	je     4057c7 <_ZNSt8_Rb_treeINSt7__cxx1112basic_stringIcSt11char_traitsIcESaIcEEESt4pairIKS5_fESt10_Select1stIS8_ESt4lessIS5_ESaIS8_EE7_M_copyILb0ENSE_20_Reuse_or_alloc_nodeEEEPSt13_Rb_tree_nodeIS8_ESJ_PSt18_Rb_tree_node_baseRT0_+0xb7>
  40575c:	48 8b 7d f0          	mov    -0x10(%rbp),%rdi
  405760:	e8 fb ef ff ff       	call   404760 <_ZNSt8_Rb_treeINSt7__cxx1112basic_stringIcSt11char_traitsIcESaIcEEESt4pairIKS5_fESt10_Select1stIS8_ESt4lessIS5_ESaIS8_EE8_S_rightEPSt18_Rb_tree_node_base>
  405765:	48 8b 7d b8          	mov    -0x48(%rbp),%rdi
  405769:	48 89 c6             	mov    %rax,%rsi
  40576c:	48 8b 55 d8          	mov    -0x28(%rbp),%rdx
  405770:	48 8b 4d e0          	mov    -0x20(%rbp),%rcx
  405774:	e8 97 ff ff ff       	call   405710 <_ZNSt8_Rb_treeINSt7__cxx1112basic_stringIcSt11char_traitsIcESaIcEEESt4pairIKS5_fESt10_Select1stIS8_ESt4lessIS5_ESaIS8_EE7_M_copyILb0ENSE_20_Reuse_or_alloc_nodeEEEPSt13_Rb_tree_nodeIS8_ESJ_PSt18_Rb_tree_node_baseRT0_>
  405779:	48 89 c1             	mov    %rax,%rcx
  40577c:	48 89 4d b0          	mov    %rcx,-0x50(%rbp)
  405780:	e9 00 00 00 00       	jmp    405785 <_ZNSt8_Rb_treeINSt7__cxx1112basic_stringIcSt11char_traitsIcESaIcEEESt4pairIKS5_fESt10_Select1stIS8_ESt4lessIS5_ESaIS8_EE7_M_copyILb0ENSE_20_Reuse_or_alloc_nodeEEEPSt13_Rb_tree_nodeIS8_ESJ_PSt18_Rb_tree_node_baseRT0_+0x75>
  405785:	48 8b 4d b0          	mov    -0x50(%rbp),%rcx
  405789:	48 8b 45 d8          	mov    -0x28(%rbp),%rax
  40578d:	48 89 48 18          	mov    %rcx,0x18(%rax)
  405791:	e9 31 00 00 00       	jmp    4057c7 <_ZNSt8_Rb_treeINSt7__cxx1112basic_stringIcSt11char_traitsIcESaIcEEESt4pairIKS5_fESt10_Select1stIS8_ESt4lessIS5_ESaIS8_EE7_M_copyILb0ENSE_20_Reuse_or_alloc_nodeEEEPSt13_Rb_tree_nodeIS8_ESJ_PSt18_Rb_tree_node_baseRT0_+0xb7>
  405796:	48 89 c1             	mov    %rax,%rcx
  405799:	89 d0                	mov    %edx,%eax
  40579b:	48 89 4d d0          	mov    %rcx,-0x30(%rbp)
  40579f:	89 45 cc             	mov    %eax,-0x34(%rbp)
  4057a2:	48 8b 7d d0          	mov    -0x30(%rbp),%rdi
  4057a6:	e8 25 c9 ff ff       	call   4020d0 <__cxa_begin_catch@plt>
  4057ab:	48 8b 7d b8          	mov    -0x48(%rbp),%rdi
  4057af:	48 8b 75 d8          	mov    -0x28(%rbp),%rsi
  4057b3:	e8 f8 ee ff ff       	call   4046b0 <_ZNSt8_Rb_treeINSt7__cxx1112basic_stringIcSt11char_traitsIcESaIcEEESt4pairIKS5_fESt10_Select1stIS8_ESt4lessIS5_ESaIS8_EE8_M_eraseEPSt13_Rb_tree_nodeIS8_E>
  4057b8:	e9 00 00 00 00       	jmp    4057bd <_ZNSt8_Rb_treeINSt7__cxx1112basic_stringIcSt11char_traitsIcESaIcEEESt4pairIKS5_fESt10_Select1stIS8_ESt4lessIS5_ESaIS8_EE7_M_copyILb0ENSE_20_Reuse_or_alloc_nodeEEEPSt13_Rb_tree_nodeIS8_ESJ_PSt18_Rb_tree_node_baseRT0_+0xad>
  4057bd:	e8 ce ca ff ff       	call   402290 <__cxa_rethrow@plt>
  4057c2:	e9 f7 00 00 00       	jmp    4058be <_ZNSt8_Rb_treeINSt7__cxx1112basic_stringIcSt11char_traitsIcESaIcEEESt4pairIKS5_fESt10_Select1stIS8_ESt4lessIS5_ESaIS8_EE7_M_copyILb0ENSE_20_Reuse_or_alloc_nodeEEEPSt13_Rb_tree_nodeIS8_ESJ_PSt18_Rb_tree_node_baseRT0_+0x1ae>
  4057c7:	48 8b 45 d8          	mov    -0x28(%rbp),%rax
  4057cb:	48 89 45 e8          	mov    %rax,-0x18(%rbp)
  4057cf:	48 8b 7d f0          	mov    -0x10(%rbp),%rdi
  4057d3:	e8 a8 ef ff ff       	call   404780 <_ZNSt8_Rb_treeINSt7__cxx1112basic_stringIcSt11char_traitsIcESaIcEEESt4pairIKS5_fESt10_Select1stIS8_ESt4lessIS5_ESaIS8_EE7_S_leftEPSt18_Rb_tree_node_base>
  4057d8:	48 89 45 f0          	mov    %rax,-0x10(%rbp)
  4057dc:	48 83 7d f0 00       	cmpq   $0x0,-0x10(%rbp)
  4057e1:	0f 84 9b 00 00 00    	je     405882 <_ZNSt8_Rb_treeINSt7__cxx1112basic_stringIcSt11char_traitsIcESaIcEEESt4pairIKS5_fESt10_Select1stIS8_ESt4lessIS5_ESaIS8_EE7_M_copyILb0ENSE_20_Reuse_or_alloc_nodeEEEPSt13_Rb_tree_nodeIS8_ESJ_PSt18_Rb_tree_node_baseRT0_+0x172>
  4057e7:	48 8b 7d b8          	mov    -0x48(%rbp),%rdi
  4057eb:	48 8b 75 f0          	mov    -0x10(%rbp),%rsi
  4057ef:	48 8b 55 e0          	mov    -0x20(%rbp),%rdx
  4057f3:	e8 28 01 00 00       	call   405920 <_ZNSt8_Rb_treeINSt7__cxx1112basic_stringIcSt11char_traitsIcESaIcEEESt4pairIKS5_fESt10_Select1stIS8_ESt4lessIS5_ESaIS8_EE13_M_clone_nodeILb0ENSE_20_Reuse_or_alloc_nodeEEEPSt13_Rb_tree_nodeIS8_ESJ_RT0_>
  4057f8:	48 89 c1             	mov    %rax,%rcx
  4057fb:	48 89 4d a8          	mov    %rcx,-0x58(%rbp)
  4057ff:	e9 00 00 00 00       	jmp    405804 <_ZNSt8_Rb_treeINSt7__cxx1112basic_stringIcSt11char_traitsIcESaIcEEESt4pairIKS5_fESt10_Select1stIS8_ESt4lessIS5_ESaIS8_EE7_M_copyILb0ENSE_20_Reuse_or_alloc_nodeEEEPSt13_Rb_tree_nodeIS8_ESJ_PSt18_Rb_tree_node_baseRT0_+0xf4>
  405804:	48 8b 45 a8          	mov    -0x58(%rbp),%rax
  405808:	48 89 45 c0          	mov    %rax,-0x40(%rbp)
  40580c:	48 8b 4d c0          	mov    -0x40(%rbp),%rcx
  405810:	48 8b 45 e8          	mov    -0x18(%rbp),%rax
  405814:	48 89 48 10          	mov    %rcx,0x10(%rax)
  405818:	48 8b 4d e8          	mov    -0x18(%rbp),%rcx
  40581c:	48 8b 45 c0          	mov    -0x40(%rbp),%rax
  405820:	48 89 48 08          	mov    %rcx,0x8(%rax)
  405824:	48 8b 45 f0          	mov    -0x10(%rbp),%rax
  405828:	48 83 78 18 00       	cmpq   $0x0,0x18(%rax)
  40582d:	0f 84 35 00 00 00    	je     405868 <_ZNSt8_Rb_treeINSt7__cxx1112basic_stringIcSt11char_traitsIcESaIcEEESt4pairIKS5_fESt10_Select1stIS8_ESt4lessIS5_ESaIS8_EE7_M_copyILb0ENSE_20_Reuse_or_alloc_nodeEEEPSt13_Rb_tree_nodeIS8_ESJ_PSt18_Rb_tree_node_baseRT0_+0x158>
  405833:	48 8b 7d f0          	mov    -0x10(%rbp),%rdi
  405837:	e8 24 ef ff ff       	call   404760 <_ZNSt8_Rb_treeINSt7__cxx1112basic_stringIcSt11char_traitsIcESaIcEEESt4pairIKS5_fESt10_Select1stIS8_ESt4lessIS5_ESaIS8_EE8_S_rightEPSt18_Rb_tree_node_base>
  40583c:	48 8b 7d b8          	mov    -0x48(%rbp),%rdi
  405840:	48 89 c6             	mov    %rax,%rsi
  405843:	48 8b 55 c0          	mov    -0x40(%rbp),%rdx
  405847:	48 8b 4d e0          	mov    -0x20(%rbp),%rcx
  40584b:	e8 c0 fe ff ff       	call   405710 <_ZNSt8_Rb_treeINSt7__cxx1112basic_stringIcSt11char_traitsIcESaIcEEESt4pairIKS5_fESt10_Select1stIS8_ESt4lessIS5_ESaIS8_EE7_M_copyILb0ENSE_20_Reuse_or_alloc_nodeEEEPSt13_Rb_tree_nodeIS8_ESJ_PSt18_Rb_tree_node_baseRT0_>
  405850:	48 89 c1             	mov    %rax,%rcx
  405853:	48 89 4d a0          	mov    %rcx,-0x60(%rbp)
  405857:	e9 00 00 00 00       	jmp    40585c <_ZNSt8_Rb_treeINSt7__cxx1112basic_stringIcSt11char_traitsIcESaIcEEESt4pairIKS5_fESt10_Select1stIS8_ESt4lessIS5_ESaIS8_EE7_M_copyILb0ENSE_20_Reuse_or_alloc_nodeEEEPSt13_Rb_tree_nodeIS8_ESJ_PSt18_Rb_tree_node_baseRT0_+0x14c>
  40585c:	48 8b 4d a0          	mov    -0x60(%rbp),%rcx
  405860:	48 8b 45 c0          	mov    -0x40(%rbp),%rax
  405864:	48 89 48 18          	mov    %rcx,0x18(%rax)
  405868:	48 8b 45 c0          	mov    -0x40(%rbp),%rax
  40586c:	48 89 45 e8          	mov    %rax,-0x18(%rbp)
  405870:	48 8b 7d f0          	mov    -0x10(%rbp),%rdi
  405874:	e8 07 ef ff ff       	call   404780 <_ZNSt8_Rb_treeINSt7__cxx1112basic_stringIcSt11char_traitsIcESaIcEEESt4pairIKS5_fESt10_Select1stIS8_ESt4lessIS5_ESaIS8_EE7_S_leftEPSt18_Rb_tree_node_base>
  405879:	48 89 45 f0          	mov    %rax,-0x10(%rbp)
  40587d:	e9 5a ff ff ff       	jmp    4057dc <_ZNSt8_Rb_treeINSt7__cxx1112basic_stringIcSt11char_traitsIcESaIcEEESt4pairIKS5_fESt10_Select1stIS8_ESt4lessIS5_ESaIS8_EE7_M_copyILb0ENSE_20_Reuse_or_alloc_nodeEEEPSt13_Rb_tree_nodeIS8_ESJ_PSt18_Rb_tree_node_baseRT0_+0xcc>
  405882:	e9 1c 00 00 00       	jmp    4058a3 <_ZNSt8_Rb_treeINSt7__cxx1112basic_stringIcSt11char_traitsIcESaIcEEESt4pairIKS5_fESt10_Select1stIS8_ESt4lessIS5_ESaIS8_EE7_M_copyILb0ENSE_20_Reuse_or_alloc_nodeEEEPSt13_Rb_tree_nodeIS8_ESJ_PSt18_Rb_tree_node_baseRT0_+0x193>
  405887:	48 89 d1             	mov    %rdx,%rcx
  40588a:	48 89 c6             	mov    %rax,%rsi
  40588d:	48 89 75 d0          	mov    %rsi,-0x30(%rbp)
  405891:	89 4d cc             	mov    %ecx,-0x34(%rbp)
  405894:	e8 57 ca ff ff       	call   4022f0 <__cxa_end_catch@plt>
  405899:	e9 00 00 00 00       	jmp    40589e <_ZNSt8_Rb_treeINSt7__cxx1112basic_stringIcSt11char_traitsIcESaIcEEESt4pairIKS5_fESt10_Select1stIS8_ESt4lessIS5_ESaIS8_EE7_M_copyILb0ENSE_20_Reuse_or_alloc_nodeEEEPSt13_Rb_tree_nodeIS8_ESJ_PSt18_Rb_tree_node_baseRT0_+0x18e>
  40589e:	e9 0a 00 00 00       	jmp    4058ad <_ZNSt8_Rb_treeINSt7__cxx1112basic_stringIcSt11char_traitsIcESaIcEEESt4pairIKS5_fESt10_Select1stIS8_ESt4lessIS5_ESaIS8_EE7_M_copyILb0ENSE_20_Reuse_or_alloc_nodeEEEPSt13_Rb_tree_nodeIS8_ESJ_PSt18_Rb_tree_node_baseRT0_+0x19d>
  4058a3:	48 8b 45 d8          	mov    -0x28(%rbp),%rax
  4058a7:	48 83 c4 60          	add    $0x60,%rsp
  4058ab:	5d                   	pop    %rbp
  4058ac:	c3                   	ret    
  4058ad:	48 8b 7d d0          	mov    -0x30(%rbp),%rdi
  4058b1:	e8 6a ca ff ff       	call   402320 <_Unwind_Resume@plt>
  4058b6:	48 89 c7             	mov    %rax,%rdi
  4058b9:	e8 52 ce ff ff       	call   402710 <__clang_call_terminate>
  4058be:	66 90                	xchg   %ax,%ax

00000000004058c0 <_ZNSt8_Rb_treeINSt7__cxx1112basic_stringIcSt11char_traitsIcESaIcEEESt4pairIKS5_fESt10_Select1stIS8_ESt4lessIS5_ESaIS8_EE10_S_minimumEPSt18_Rb_tree_node_base>:
  4058c0:	55                   	push   %rbp
  4058c1:	48 89 e5             	mov    %rsp,%rbp
  4058c4:	48 83 ec 10          	sub    $0x10,%rsp
  4058c8:	48 89 7d f8          	mov    %rdi,-0x8(%rbp)
  4058cc:	48 8b 7d f8          	mov    -0x8(%rbp),%rdi
  4058d0:	e8 5b 02 00 00       	call   405b30 <_ZNSt18_Rb_tree_node_base10_S_minimumEPS_>
  4058d5:	48 83 c4 10          	add    $0x10,%rsp
  4058d9:	5d                   	pop    %rbp
  4058da:	c3                   	ret    
  4058db:	0f 1f 44 00 00       	nopl   0x0(%rax,%rax,1)

00000000004058e0 <_ZNSt8_Rb_treeINSt7__cxx1112basic_stringIcSt11char_traitsIcESaIcEEESt4pairIKS5_fESt10_Select1stIS8_ESt4lessIS5_ESaIS8_EE11_M_leftmostEv>:
  4058e0:	55                   	push   %rbp
  4058e1:	48 89 e5             	mov    %rsp,%rbp
  4058e4:	48 89 7d f8          	mov    %rdi,-0x8(%rbp)
  4058e8:	48 8b 45 f8          	mov    -0x8(%rbp),%rax
  4058ec:	48 83 c0 08          	add    $0x8,%rax
  4058f0:	48 83 c0 10          	add    $0x10,%rax
  4058f4:	5d                   	pop    %rbp
  4058f5:	c3                   	ret    
  4058f6:	66 2e 0f 1f 84 00 00 	cs nopw 0x0(%rax,%rax,1)
  4058fd:	00 00 00 

0000000000405900 <_ZNSt8_Rb_treeINSt7__cxx1112basic_stringIcSt11char_traitsIcESaIcEEESt4pairIKS5_fESt10_Select1stIS8_ESt4lessIS5_ESaIS8_EE10_S_maximumEPSt18_Rb_tree_node_base>:
  405900:	55                   	push   %rbp
  405901:	48 89 e5             	mov    %rsp,%rbp
  405904:	48 83 ec 10          	sub    $0x10,%rsp
  405908:	48 89 7d f8          	mov    %rdi,-0x8(%rbp)
  40590c:	48 8b 7d f8          	mov    -0x8(%rbp),%rdi
  405910:	e8 4b 02 00 00       	call   405b60 <_ZNSt18_Rb_tree_node_base10_S_maximumEPS_>
  405915:	48 83 c4 10          	add    $0x10,%rsp
  405919:	5d                   	pop    %rbp
  40591a:	c3                   	ret    
  40591b:	0f 1f 44 00 00       	nopl   0x0(%rax,%rax,1)

0000000000405920 <_ZNSt8_Rb_treeINSt7__cxx1112basic_stringIcSt11char_traitsIcESaIcEEESt4pairIKS5_fESt10_Select1stIS8_ESt4lessIS5_ESaIS8_EE13_M_clone_nodeILb0ENSE_20_Reuse_or_alloc_nodeEEEPSt13_Rb_tree_nodeIS8_ESJ_RT0_>:
  405920:	55                   	push   %rbp
  405921:	48 89 e5             	mov    %rsp,%rbp
  405924:	48 83 ec 30          	sub    $0x30,%rsp
  405928:	48 89 7d f8          	mov    %rdi,-0x8(%rbp)
  40592c:	48 89 75 f0          	mov    %rsi,-0x10(%rbp)
  405930:	48 89 55 e8          	mov    %rdx,-0x18(%rbp)
  405934:	48 8b 45 e8          	mov    -0x18(%rbp),%rax
  405938:	48 89 45 d8          	mov    %rax,-0x28(%rbp)
  40593c:	48 8b 7d f0          	mov    -0x10(%rbp),%rdi
  405940:	e8 ab ef ff ff       	call   4048f0 <_ZNSt13_Rb_tree_nodeISt4pairIKNSt7__cxx1112basic_stringIcSt11char_traitsIcESaIcEEEfEE9_M_valptrEv>
  405945:	48 8b 7d d8          	mov    -0x28(%rbp),%rdi
  405949:	48 89 c6             	mov    %rax,%rsi
  40594c:	e8 3f 00 00 00       	call   405990 <_ZNSt8_Rb_treeINSt7__cxx1112basic_stringIcSt11char_traitsIcESaIcEEESt4pairIKS5_fESt10_Select1stIS8_ESt4lessIS5_ESaIS8_EE20_Reuse_or_alloc_nodeclIS8_EEPSt13_Rb_tree_nodeIS8_ERKT_>
  405951:	48 89 45 e0          	mov    %rax,-0x20(%rbp)
  405955:	48 8b 45 f0          	mov    -0x10(%rbp),%rax
  405959:	8b 08                	mov    (%rax),%ecx
  40595b:	48 8b 45 e0          	mov    -0x20(%rbp),%rax
  40595f:	89 08                	mov    %ecx,(%rax)
  405961:	48 8b 45 e0          	mov    -0x20(%rbp),%rax
  405965:	48 c7 40 10 00 00 00 	movq   $0x0,0x10(%rax)
  40596c:	00 
  40596d:	48 8b 45 e0          	mov    -0x20(%rbp),%rax
  405971:	48 c7 40 18 00 00 00 	movq   $0x0,0x18(%rax)
  405978:	00 
  405979:	48 8b 45 e0          	mov    -0x20(%rbp),%rax
  40597d:	48 83 c4 30          	add    $0x30,%rsp
  405981:	5d                   	pop    %rbp
  405982:	c3                   	ret    
  405983:	66 2e 0f 1f 84 00 00 	cs nopw 0x0(%rax,%rax,1)
  40598a:	00 00 00 
  40598d:	0f 1f 00             	nopl   (%rax)

0000000000405990 <_ZNSt8_Rb_treeINSt7__cxx1112basic_stringIcSt11char_traitsIcESaIcEEESt4pairIKS5_fESt10_Select1stIS8_ESt4lessIS5_ESaIS8_EE20_Reuse_or_alloc_nodeclIS8_EEPSt13_Rb_tree_nodeIS8_ERKT_>:
  405990:	55                   	push   %rbp
  405991:	48 89 e5             	mov    %rsp,%rbp
  405994:	48 83 ec 30          	sub    $0x30,%rsp
  405998:	48 89 7d f0          	mov    %rdi,-0x10(%rbp)
  40599c:	48 89 75 e8          	mov    %rsi,-0x18(%rbp)
  4059a0:	48 8b 7d f0          	mov    -0x10(%rbp),%rdi
  4059a4:	48 89 7d d8          	mov    %rdi,-0x28(%rbp)
  4059a8:	e8 63 00 00 00       	call   405a10 <_ZNSt8_Rb_treeINSt7__cxx1112basic_stringIcSt11char_traitsIcESaIcEEESt4pairIKS5_fESt10_Select1stIS8_ESt4lessIS5_ESaIS8_EE20_Reuse_or_alloc_node10_M_extractEv>
  4059ad:	48 89 45 e0          	mov    %rax,-0x20(%rbp)
  4059b1:	48 83 7d e0 00       	cmpq   $0x0,-0x20(%rbp)
  4059b6:	0f 84 33 00 00 00    	je     4059ef <_ZNSt8_Rb_treeINSt7__cxx1112basic_stringIcSt11char_traitsIcESaIcEEESt4pairIKS5_fESt10_Select1stIS8_ESt4lessIS5_ESaIS8_EE20_Reuse_or_alloc_nodeclIS8_EEPSt13_Rb_tree_nodeIS8_ERKT_+0x5f>
  4059bc:	48 8b 45 d8          	mov    -0x28(%rbp),%rax
  4059c0:	48 8b 78 10          	mov    0x10(%rax),%rdi
  4059c4:	48 8b 75 e0          	mov    -0x20(%rbp),%rsi
  4059c8:	e8 13 ee ff ff       	call   4047e0 <_ZNSt8_Rb_treeINSt7__cxx1112basic_stringIcSt11char_traitsIcESaIcEEESt4pairIKS5_fESt10_Select1stIS8_ESt4lessIS5_ESaIS8_EE15_M_destroy_nodeEPSt13_Rb_tree_nodeIS8_E>
  4059cd:	48 8b 45 d8          	mov    -0x28(%rbp),%rax
  4059d1:	48 8b 78 10          	mov    0x10(%rax),%rdi
  4059d5:	48 8b 75 e0          	mov    -0x20(%rbp),%rsi
  4059d9:	48 8b 55 e8          	mov    -0x18(%rbp),%rdx
  4059dd:	e8 0e f8 ff ff       	call   4051f0 <_ZNSt8_Rb_treeINSt7__cxx1112basic_stringIcSt11char_traitsIcESaIcEEESt4pairIKS5_fESt10_Select1stIS8_ESt4lessIS5_ESaIS8_EE17_M_construct_nodeEPSt13_Rb_tree_nodeIS8_ERKS8_>
  4059e2:	48 8b 45 e0          	mov    -0x20(%rbp),%rax
  4059e6:	48 89 45 f8          	mov    %rax,-0x8(%rbp)
  4059ea:	e9 15 00 00 00       	jmp    405a04 <_ZNSt8_Rb_treeINSt7__cxx1112basic_stringIcSt11char_traitsIcESaIcEEESt4pairIKS5_fESt10_Select1stIS8_ESt4lessIS5_ESaIS8_EE20_Reuse_or_alloc_nodeclIS8_EEPSt13_Rb_tree_nodeIS8_ERKT_+0x74>
  4059ef:	48 8b 45 d8          	mov    -0x28(%rbp),%rax
  4059f3:	48 8b 78 10          	mov    0x10(%rax),%rdi
  4059f7:	48 8b 75 e8          	mov    -0x18(%rbp),%rsi
  4059fb:	e8 80 f7 ff ff       	call   405180 <_ZNSt8_Rb_treeINSt7__cxx1112basic_stringIcSt11char_traitsIcESaIcEEESt4pairIKS5_fESt10_Select1stIS8_ESt4lessIS5_ESaIS8_EE14_M_create_nodeERKS8_>
  405a00:	48 89 45 f8          	mov    %rax,-0x8(%rbp)
  405a04:	48 8b 45 f8          	mov    -0x8(%rbp),%rax
  405a08:	48 83 c4 30          	add    $0x30,%rsp
  405a0c:	5d                   	pop    %rbp
  405a0d:	c3                   	ret    
  405a0e:	66 90                	xchg   %ax,%ax

0000000000405a10 <_ZNSt8_Rb_treeINSt7__cxx1112basic_stringIcSt11char_traitsIcESaIcEEESt4pairIKS5_fESt10_Select1stIS8_ESt4lessIS5_ESaIS8_EE20_Reuse_or_alloc_node10_M_extractEv>:
  405a10:	55                   	push   %rbp
  405a11:	48 89 e5             	mov    %rsp,%rbp
  405a14:	48 89 7d f0          	mov    %rdi,-0x10(%rbp)
  405a18:	48 8b 45 f0          	mov    -0x10(%rbp),%rax
  405a1c:	48 89 45 e0          	mov    %rax,-0x20(%rbp)
  405a20:	48 83 78 08 00       	cmpq   $0x0,0x8(%rax)
  405a25:	0f 85 11 00 00 00    	jne    405a3c <_ZNSt8_Rb_treeINSt7__cxx1112basic_stringIcSt11char_traitsIcESaIcEEESt4pairIKS5_fESt10_Select1stIS8_ESt4lessIS5_ESaIS8_EE20_Reuse_or_alloc_node10_M_extractEv+0x2c>
  405a2b:	48 8b 45 e0          	mov    -0x20(%rbp),%rax
  405a2f:	48 8b 40 08          	mov    0x8(%rax),%rax
  405a33:	48 89 45 f8          	mov    %rax,-0x8(%rbp)
  405a37:	e9 e5 00 00 00       	jmp    405b21 <_ZNSt8_Rb_treeINSt7__cxx1112basic_stringIcSt11char_traitsIcESaIcEEESt4pairIKS5_fESt10_Select1stIS8_ESt4lessIS5_ESaIS8_EE20_Reuse_or_alloc_node10_M_extractEv+0x111>
  405a3c:	48 8b 45 e0          	mov    -0x20(%rbp),%rax
  405a40:	48 8b 48 08          	mov    0x8(%rax),%rcx
  405a44:	48 89 4d e8          	mov    %rcx,-0x18(%rbp)
  405a48:	48 8b 48 08          	mov    0x8(%rax),%rcx
  405a4c:	48 8b 49 08          	mov    0x8(%rcx),%rcx
  405a50:	48 89 48 08          	mov    %rcx,0x8(%rax)
  405a54:	48 83 78 08 00       	cmpq   $0x0,0x8(%rax)
  405a59:	0f 84 af 00 00 00    	je     405b0e <_ZNSt8_Rb_treeINSt7__cxx1112basic_stringIcSt11char_traitsIcESaIcEEESt4pairIKS5_fESt10_Select1stIS8_ESt4lessIS5_ESaIS8_EE20_Reuse_or_alloc_node10_M_extractEv+0xfe>
  405a5f:	48 8b 45 e0          	mov    -0x20(%rbp),%rax
  405a63:	48 8b 40 08          	mov    0x8(%rax),%rax
  405a67:	48 8b 40 18          	mov    0x18(%rax),%rax
  405a6b:	48 3b 45 e8          	cmp    -0x18(%rbp),%rax
  405a6f:	0f 85 84 00 00 00    	jne    405af9 <_ZNSt8_Rb_treeINSt7__cxx1112basic_stringIcSt11char_traitsIcESaIcEEESt4pairIKS5_fESt10_Select1stIS8_ESt4lessIS5_ESaIS8_EE20_Reuse_or_alloc_node10_M_extractEv+0xe9>
  405a75:	48 8b 45 e0          	mov    -0x20(%rbp),%rax
  405a79:	48 8b 48 08          	mov    0x8(%rax),%rcx
  405a7d:	48 c7 41 18 00 00 00 	movq   $0x0,0x18(%rcx)
  405a84:	00 
  405a85:	48 8b 40 08          	mov    0x8(%rax),%rax
  405a89:	48 83 78 10 00       	cmpq   $0x0,0x10(%rax)
  405a8e:	0f 84 60 00 00 00    	je     405af4 <_ZNSt8_Rb_treeINSt7__cxx1112basic_stringIcSt11char_traitsIcESaIcEEESt4pairIKS5_fESt10_Select1stIS8_ESt4lessIS5_ESaIS8_EE20_Reuse_or_alloc_node10_M_extractEv+0xe4>
  405a94:	48 8b 45 e0          	mov    -0x20(%rbp),%rax
  405a98:	48 8b 48 08          	mov    0x8(%rax),%rcx
  405a9c:	48 8b 49 10          	mov    0x10(%rcx),%rcx
  405aa0:	48 89 48 08          	mov    %rcx,0x8(%rax)
  405aa4:	48 8b 45 e0          	mov    -0x20(%rbp),%rax
  405aa8:	48 8b 40 08          	mov    0x8(%rax),%rax
  405aac:	48 83 78 18 00       	cmpq   $0x0,0x18(%rax)
  405ab1:	0f 84 15 00 00 00    	je     405acc <_ZNSt8_Rb_treeINSt7__cxx1112basic_stringIcSt11char_traitsIcESaIcEEESt4pairIKS5_fESt10_Select1stIS8_ESt4lessIS5_ESaIS8_EE20_Reuse_or_alloc_node10_M_extractEv+0xbc>
  405ab7:	48 8b 45 e0          	mov    -0x20(%rbp),%rax
  405abb:	48 8b 48 08          	mov    0x8(%rax),%rcx
  405abf:	48 8b 49 18          	mov    0x18(%rcx),%rcx
  405ac3:	48 89 48 08          	mov    %rcx,0x8(%rax)
  405ac7:	e9 d8 ff ff ff       	jmp    405aa4 <_ZNSt8_Rb_treeINSt7__cxx1112basic_stringIcSt11char_traitsIcESaIcEEESt4pairIKS5_fESt10_Select1stIS8_ESt4lessIS5_ESaIS8_EE20_Reuse_or_alloc_node10_M_extractEv+0x94>
  405acc:	48 8b 45 e0          	mov    -0x20(%rbp),%rax
  405ad0:	48 8b 40 08          	mov    0x8(%rax),%rax
  405ad4:	48 83 78 10 00       	cmpq   $0x0,0x10(%rax)
  405ad9:	0f 84 10 00 00 00    	je     405aef <_ZNSt8_Rb_treeINSt7__cxx1112basic_stringIcSt11char_traitsIcESaIcEEESt4pairIKS5_fESt10_Select1stIS8_ESt4lessIS5_ESaIS8_EE20_Reuse_or_alloc_node10_M_extractEv+0xdf>
  405adf:	48 8b 45 e0          	mov    -0x20(%rbp),%rax
  405ae3:	48 8b 48 08          	mov    0x8(%rax),%rcx
  405ae7:	48 8b 49 10          	mov    0x10(%rcx),%rcx
  405aeb:	48 89 48 08          	mov    %rcx,0x8(%rax)
  405aef:	e9 00 00 00 00       	jmp    405af4 <_ZNSt8_Rb_treeINSt7__cxx1112basic_stringIcSt11char_traitsIcESaIcEEESt4pairIKS5_fESt10_Select1stIS8_ESt4lessIS5_ESaIS8_EE20_Reuse_or_alloc_node10_M_extractEv+0xe4>
  405af4:	e9 10 00 00 00       	jmp    405b09 <_ZNSt8_Rb_treeINSt7__cxx1112basic_stringIcSt11char_traitsIcESaIcEEESt4pairIKS5_fESt10_Select1stIS8_ESt4lessIS5_ESaIS8_EE20_Reuse_or_alloc_node10_M_extractEv+0xf9>
  405af9:	48 8b 45 e0          	mov    -0x20(%rbp),%rax
  405afd:	48 8b 40 08          	mov    0x8(%rax),%rax
  405b01:	48 c7 40 10 00 00 00 	movq   $0x0,0x10(%rax)
  405b08:	00 
  405b09:	e9 0b 00 00 00       	jmp    405b19 <_ZNSt8_Rb_treeINSt7__cxx1112basic_stringIcSt11char_traitsIcESaIcEEESt4pairIKS5_fESt10_Select1stIS8_ESt4lessIS5_ESaIS8_EE20_Reuse_or_alloc_node10_M_extractEv+0x109>
  405b0e:	48 8b 45 e0          	mov    -0x20(%rbp),%rax
  405b12:	48 c7 00 00 00 00 00 	movq   $0x0,(%rax)
  405b19:	48 8b 45 e8          	mov    -0x18(%rbp),%rax
  405b1d:	48 89 45 f8          	mov    %rax,-0x8(%rbp)
  405b21:	48 8b 45 f8          	mov    -0x8(%rbp),%rax
  405b25:	5d                   	pop    %rbp
  405b26:	c3                   	ret    
  405b27:	66 0f 1f 84 00 00 00 	nopw   0x0(%rax,%rax,1)
  405b2e:	00 00 

0000000000405b30 <_ZNSt18_Rb_tree_node_base10_S_minimumEPS_>:
  405b30:	55                   	push   %rbp
  405b31:	48 89 e5             	mov    %rsp,%rbp
  405b34:	48 89 7d f8          	mov    %rdi,-0x8(%rbp)
  405b38:	48 8b 45 f8          	mov    -0x8(%rbp),%rax
  405b3c:	48 83 78 10 00       	cmpq   $0x0,0x10(%rax)
  405b41:	0f 84 11 00 00 00    	je     405b58 <_ZNSt18_Rb_tree_node_base10_S_minimumEPS_+0x28>
  405b47:	48 8b 45 f8          	mov    -0x8(%rbp),%rax
  405b4b:	48 8b 40 10          	mov    0x10(%rax),%rax
  405b4f:	48 89 45 f8          	mov    %rax,-0x8(%rbp)
  405b53:	e9 e0 ff ff ff       	jmp    405b38 <_ZNSt18_Rb_tree_node_base10_S_minimumEPS_+0x8>
  405b58:	48 8b 45 f8          	mov    -0x8(%rbp),%rax
  405b5c:	5d                   	pop    %rbp
  405b5d:	c3                   	ret    
  405b5e:	66 90                	xchg   %ax,%ax

0000000000405b60 <_ZNSt18_Rb_tree_node_base10_S_maximumEPS_>:
  405b60:	55                   	push   %rbp
  405b61:	48 89 e5             	mov    %rsp,%rbp
  405b64:	48 89 7d f8          	mov    %rdi,-0x8(%rbp)
  405b68:	48 8b 45 f8          	mov    -0x8(%rbp),%rax
  405b6c:	48 83 78 18 00       	cmpq   $0x0,0x18(%rax)
  405b71:	0f 84 11 00 00 00    	je     405b88 <_ZNSt18_Rb_tree_node_base10_S_maximumEPS_+0x28>
  405b77:	48 8b 45 f8          	mov    -0x8(%rbp),%rax
  405b7b:	48 8b 40 18          	mov    0x18(%rax),%rax
  405b7f:	48 89 45 f8          	mov    %rax,-0x8(%rbp)
  405b83:	e9 e0 ff ff ff       	jmp    405b68 <_ZNSt18_Rb_tree_node_base10_S_maximumEPS_+0x8>
  405b88:	48 8b 45 f8          	mov    -0x8(%rbp),%rax
  405b8c:	5d                   	pop    %rbp
  405b8d:	c3                   	ret    
  405b8e:	66 90                	xchg   %ax,%ax

0000000000405b90 <_ZNKSt8_Rb_treeINSt7__cxx1112basic_stringIcSt11char_traitsIcESaIcEEESt4pairIKS5_fESt10_Select1stIS8_ESt4lessIS5_ESaIS8_EE5beginEv>:
  405b90:	55                   	push   %rbp
  405b91:	48 89 e5             	mov    %rsp,%rbp
  405b94:	48 83 ec 10          	sub    $0x10,%rsp
  405b98:	48 89 7d f0          	mov    %rdi,-0x10(%rbp)
  405b9c:	48 8b 45 f0          	mov    -0x10(%rbp),%rax
  405ba0:	48 8b 70 18          	mov    0x18(%rax),%rsi
  405ba4:	48 8d 7d f8          	lea    -0x8(%rbp),%rdi
  405ba8:	e8 13 00 00 00       	call   405bc0 <_ZNSt23_Rb_tree_const_iteratorISt4pairIKNSt7__cxx1112basic_stringIcSt11char_traitsIcESaIcEEEfEEC2EPKSt18_Rb_tree_node_base>
  405bad:	48 8b 45 f8          	mov    -0x8(%rbp),%rax
  405bb1:	48 83 c4 10          	add    $0x10,%rsp
  405bb5:	5d                   	pop    %rbp
  405bb6:	c3                   	ret    
  405bb7:	66 0f 1f 84 00 00 00 	nopw   0x0(%rax,%rax,1)
  405bbe:	00 00 

0000000000405bc0 <_ZNSt23_Rb_tree_const_iteratorISt4pairIKNSt7__cxx1112basic_stringIcSt11char_traitsIcESaIcEEEfEEC2EPKSt18_Rb_tree_node_base>:
  405bc0:	55                   	push   %rbp
  405bc1:	48 89 e5             	mov    %rsp,%rbp
  405bc4:	48 89 7d f8          	mov    %rdi,-0x8(%rbp)
  405bc8:	48 89 75 f0          	mov    %rsi,-0x10(%rbp)
  405bcc:	48 8b 45 f8          	mov    -0x8(%rbp),%rax
  405bd0:	48 8b 4d f0          	mov    -0x10(%rbp),%rcx
  405bd4:	48 89 08             	mov    %rcx,(%rax)
  405bd7:	5d                   	pop    %rbp
  405bd8:	c3                   	ret    
  405bd9:	0f 1f 80 00 00 00 00 	nopl   0x0(%rax)

0000000000405be0 <_ZNKSt8_Rb_treeINSt7__cxx1112basic_stringIcSt11char_traitsIcESaIcEEESt4pairIKS5_fESt10_Select1stIS8_ESt4lessIS5_ESaIS8_EE3endEv>:
  405be0:	55                   	push   %rbp
  405be1:	48 89 e5             	mov    %rsp,%rbp
  405be4:	48 83 ec 10          	sub    $0x10,%rsp
  405be8:	48 89 7d f0          	mov    %rdi,-0x10(%rbp)
  405bec:	48 8b 75 f0          	mov    -0x10(%rbp),%rsi
  405bf0:	48 83 c6 08          	add    $0x8,%rsi
  405bf4:	48 8d 7d f8          	lea    -0x8(%rbp),%rdi
  405bf8:	e8 c3 ff ff ff       	call   405bc0 <_ZNSt23_Rb_tree_const_iteratorISt4pairIKNSt7__cxx1112basic_stringIcSt11char_traitsIcESaIcEEEfEEC2EPKSt18_Rb_tree_node_base>
  405bfd:	48 8b 45 f8          	mov    -0x8(%rbp),%rax
  405c01:	48 83 c4 10          	add    $0x10,%rsp
  405c05:	5d                   	pop    %rbp
  405c06:	c3                   	ret    
  405c07:	66 0f 1f 84 00 00 00 	nopw   0x0(%rax,%rax,1)
  405c0e:	00 00 

0000000000405c10 <_ZNSt8_Rb_treeINSt7__cxx1112basic_stringIcSt11char_traitsIcESaIcEEESt4pairIKS5_fESt10_Select1stIS8_ESt4lessIS5_ESaIS8_EE11lower_boundERS7_>:
  405c10:	55                   	push   %rbp
  405c11:	48 89 e5             	mov    %rsp,%rbp
  405c14:	48 83 ec 30          	sub    $0x30,%rsp
  405c18:	48 89 7d f0          	mov    %rdi,-0x10(%rbp)
  405c1c:	48 89 75 e8          	mov    %rsi,-0x18(%rbp)
  405c20:	48 8b 7d f0          	mov    -0x10(%rbp),%rdi
  405c24:	48 89 7d d8          	mov    %rdi,-0x28(%rbp)
  405c28:	e8 f3 ea ff ff       	call   404720 <_ZNSt8_Rb_treeINSt7__cxx1112basic_stringIcSt11char_traitsIcESaIcEEESt4pairIKS5_fESt10_Select1stIS8_ESt4lessIS5_ESaIS8_EE8_M_beginEv>
  405c2d:	48 8b 7d d8          	mov    -0x28(%rbp),%rdi
  405c31:	48 89 45 e0          	mov    %rax,-0x20(%rbp)
  405c35:	e8 56 f3 ff ff       	call   404f90 <_ZNSt8_Rb_treeINSt7__cxx1112basic_stringIcSt11char_traitsIcESaIcEEESt4pairIKS5_fESt10_Select1stIS8_ESt4lessIS5_ESaIS8_EE6_M_endEv>
  405c3a:	48 8b 7d d8          	mov    -0x28(%rbp),%rdi
  405c3e:	48 8b 75 e0          	mov    -0x20(%rbp),%rsi
  405c42:	48 89 c2             	mov    %rax,%rdx
  405c45:	48 8b 4d e8          	mov    -0x18(%rbp),%rcx
  405c49:	e8 12 00 00 00       	call   405c60 <_ZNSt8_Rb_treeINSt7__cxx1112basic_stringIcSt11char_traitsIcESaIcEEESt4pairIKS5_fESt10_Select1stIS8_ESt4lessIS5_ESaIS8_EE14_M_lower_boundEPSt13_Rb_tree_nodeIS8_EPSt18_Rb_tree_node_baseRS7_>
  405c4e:	48 89 45 f8          	mov    %rax,-0x8(%rbp)
  405c52:	48 8b 45 f8          	mov    -0x8(%rbp),%rax
  405c56:	48 83 c4 30          	add    $0x30,%rsp
  405c5a:	5d                   	pop    %rbp
  405c5b:	c3                   	ret    
  405c5c:	0f 1f 40 00          	nopl   0x0(%rax)

0000000000405c60 <_ZNSt8_Rb_treeINSt7__cxx1112basic_stringIcSt11char_traitsIcESaIcEEESt4pairIKS5_fESt10_Select1stIS8_ESt4lessIS5_ESaIS8_EE14_M_lower_boundEPSt13_Rb_tree_nodeIS8_EPSt18_Rb_tree_node_baseRS7_>:
  405c60:	55                   	push   %rbp
  405c61:	48 89 e5             	mov    %rsp,%rbp
  405c64:	48 83 ec 40          	sub    $0x40,%rsp
  405c68:	48 89 7d f0          	mov    %rdi,-0x10(%rbp)
  405c6c:	48 89 75 e8          	mov    %rsi,-0x18(%rbp)
  405c70:	48 89 55 e0          	mov    %rdx,-0x20(%rbp)
  405c74:	48 89 4d d8          	mov    %rcx,-0x28(%rbp)
  405c78:	48 8b 45 f0          	mov    -0x10(%rbp),%rax
  405c7c:	48 89 45 d0          	mov    %rax,-0x30(%rbp)
  405c80:	48 83 7d e8 00       	cmpq   $0x0,-0x18(%rbp)
  405c85:	0f 84 55 00 00 00    	je     405ce0 <_ZNSt8_Rb_treeINSt7__cxx1112basic_stringIcSt11char_traitsIcESaIcEEESt4pairIKS5_fESt10_Select1stIS8_ESt4lessIS5_ESaIS8_EE14_M_lower_boundEPSt13_Rb_tree_nodeIS8_EPSt18_Rb_tree_node_baseRS7_+0x80>
  405c8b:	48 8b 45 d0          	mov    -0x30(%rbp),%rax
  405c8f:	48 89 45 c8          	mov    %rax,-0x38(%rbp)
  405c93:	48 8b 7d e8          	mov    -0x18(%rbp),%rdi
  405c97:	e8 44 f3 ff ff       	call   404fe0 <_ZNSt8_Rb_treeINSt7__cxx1112basic_stringIcSt11char_traitsIcESaIcEEESt4pairIKS5_fESt10_Select1stIS8_ESt4lessIS5_ESaIS8_EE6_S_keyEPKSt13_Rb_tree_nodeIS8_E>
  405c9c:	48 8b 7d c8          	mov    -0x38(%rbp),%rdi
  405ca0:	48 89 c6             	mov    %rax,%rsi
  405ca3:	48 8b 55 d8          	mov    -0x28(%rbp),%rdx
  405ca7:	e8 04 f3 ff ff       	call   404fb0 <_ZNKSt4lessINSt7__cxx1112basic_stringIcSt11char_traitsIcESaIcEEEEclERKS5_S8_>
  405cac:	a8 01                	test   $0x1,%al
  405cae:	0f 85 1a 00 00 00    	jne    405cce <_ZNSt8_Rb_treeINSt7__cxx1112basic_stringIcSt11char_traitsIcESaIcEEESt4pairIKS5_fESt10_Select1stIS8_ESt4lessIS5_ESaIS8_EE14_M_lower_boundEPSt13_Rb_tree_nodeIS8_EPSt18_Rb_tree_node_baseRS7_+0x6e>
  405cb4:	48 8b 45 e8          	mov    -0x18(%rbp),%rax
  405cb8:	48 89 45 e0          	mov    %rax,-0x20(%rbp)
  405cbc:	48 8b 7d e8          	mov    -0x18(%rbp),%rdi
  405cc0:	e8 bb ea ff ff       	call   404780 <_ZNSt8_Rb_treeINSt7__cxx1112basic_stringIcSt11char_traitsIcESaIcEEESt4pairIKS5_fESt10_Select1stIS8_ESt4lessIS5_ESaIS8_EE7_S_leftEPSt18_Rb_tree_node_base>
  405cc5:	48 89 45 e8          	mov    %rax,-0x18(%rbp)
  405cc9:	e9 0d 00 00 00       	jmp    405cdb <_ZNSt8_Rb_treeINSt7__cxx1112basic_stringIcSt11char_traitsIcESaIcEEESt4pairIKS5_fESt10_Select1stIS8_ESt4lessIS5_ESaIS8_EE14_M_lower_boundEPSt13_Rb_tree_nodeIS8_EPSt18_Rb_tree_node_baseRS7_+0x7b>
  405cce:	48 8b 7d e8          	mov    -0x18(%rbp),%rdi
  405cd2:	e8 89 ea ff ff       	call   404760 <_ZNSt8_Rb_treeINSt7__cxx1112basic_stringIcSt11char_traitsIcESaIcEEESt4pairIKS5_fESt10_Select1stIS8_ESt4lessIS5_ESaIS8_EE8_S_rightEPSt18_Rb_tree_node_base>
  405cd7:	48 89 45 e8          	mov    %rax,-0x18(%rbp)
  405cdb:	e9 a0 ff ff ff       	jmp    405c80 <_ZNSt8_Rb_treeINSt7__cxx1112basic_stringIcSt11char_traitsIcESaIcEEESt4pairIKS5_fESt10_Select1stIS8_ESt4lessIS5_ESaIS8_EE14_M_lower_boundEPSt13_Rb_tree_nodeIS8_EPSt18_Rb_tree_node_baseRS7_+0x20>
  405ce0:	48 8b 75 e0          	mov    -0x20(%rbp),%rsi
  405ce4:	48 8d 7d f8          	lea    -0x8(%rbp),%rdi
  405ce8:	e8 83 f2 ff ff       	call   404f70 <_ZNSt17_Rb_tree_iteratorISt4pairIKNSt7__cxx1112basic_stringIcSt11char_traitsIcESaIcEEEfEEC2EPSt18_Rb_tree_node_base>
  405ced:	48 8b 45 f8          	mov    -0x8(%rbp),%rax
  405cf1:	48 83 c4 40          	add    $0x40,%rsp
  405cf5:	5d                   	pop    %rbp
  405cf6:	c3                   	ret    
  405cf7:	66 0f 1f 84 00 00 00 	nopw   0x0(%rax,%rax,1)
  405cfe:	00 00 

0000000000405d00 <_ZNSt8_Rb_treeINSt7__cxx1112basic_stringIcSt11char_traitsIcESaIcEEESt4pairIKS5_fESt10_Select1stIS8_ESt4lessIS5_ESaIS8_EE3endEv>:
  405d00:	55                   	push   %rbp
  405d01:	48 89 e5             	mov    %rsp,%rbp
  405d04:	48 83 ec 10          	sub    $0x10,%rsp
  405d08:	48 89 7d f0          	mov    %rdi,-0x10(%rbp)
  405d0c:	48 8b 75 f0          	mov    -0x10(%rbp),%rsi
  405d10:	48 83 c6 08          	add    $0x8,%rsi
  405d14:	48 8d 7d f8          	lea    -0x8(%rbp),%rdi
  405d18:	e8 53 f2 ff ff       	call   404f70 <_ZNSt17_Rb_tree_iteratorISt4pairIKNSt7__cxx1112basic_stringIcSt11char_traitsIcESaIcEEEfEEC2EPSt18_Rb_tree_node_base>
  405d1d:	48 8b 45 f8          	mov    -0x8(%rbp),%rax
  405d21:	48 83 c4 10          	add    $0x10,%rsp
  405d25:	5d                   	pop    %rbp
  405d26:	c3                   	ret    
  405d27:	66 0f 1f 84 00 00 00 	nopw   0x0(%rax,%rax,1)
  405d2e:	00 00 

0000000000405d30 <main>:
  405d30:	55                   	push   %rbp
  405d31:	48 89 e5             	mov    %rsp,%rbp
  405d34:	48 81 ec e0 00 00 00 	sub    $0xe0,%rsp
  405d3b:	c7 45 fc 00 00 00 00 	movl   $0x0,-0x4(%rbp)
  405d42:	89 7d f8             	mov    %edi,-0x8(%rbp)
  405d45:	48 89 75 f0          	mov    %rsi,-0x10(%rbp)
  405d49:	83 7d f8 02          	cmpl   $0x2,-0x8(%rbp)
  405d4d:	0f 84 37 00 00 00    	je     405d8a <main+0x5a>
  405d53:	48 bf 00 92 40 00 00 	movabs $0x409200,%rdi
  405d5a:	00 00 00 
  405d5d:	48 be 40 61 40 00 00 	movabs $0x406140,%rsi
  405d64:	00 00 00 
  405d67:	e8 54 c4 ff ff       	call   4021c0 <_ZStlsISt11char_traitsIcEERSt13basic_ostreamIcT_ES5_PKc@plt>
  405d6c:	48 89 c7             	mov    %rax,%rdi
  405d6f:	48 be 00 21 40 00 00 	movabs $0x402100,%rsi
  405d76:	00 00 00 
  405d79:	e8 92 c4 ff ff       	call   402210 <_ZNSolsEPFRSoS_E@plt>
  405d7e:	c7 45 fc 01 00 00 00 	movl   $0x1,-0x4(%rbp)
  405d85:	e9 3c 01 00 00       	jmp    405ec6 <main+0x196>
  405d8a:	48 8b 4d f0          	mov    -0x10(%rbp),%rcx
  405d8e:	48 8b 49 08          	mov    0x8(%rcx),%rcx
  405d92:	48 89 8d 28 ff ff ff 	mov    %rcx,-0xd8(%rbp)
  405d99:	48 8d 7d c8          	lea    -0x38(%rbp),%rdi
  405d9d:	48 89 bd 30 ff ff ff 	mov    %rdi,-0xd0(%rbp)
  405da4:	e8 87 c5 ff ff       	call   402330 <_ZNSaIcEC1Ev@plt>
  405da9:	48 8b b5 28 ff ff ff 	mov    -0xd8(%rbp),%rsi
  405db0:	48 8b 95 30 ff ff ff 	mov    -0xd0(%rbp),%rdx
  405db7:	48 8d 7d d0          	lea    -0x30(%rbp),%rdi
  405dbb:	e8 b0 c4 ff ff       	call   402270 <_ZNSt7__cxx1112basic_stringIcSt11char_traitsIcESaIcEEC1EPKcRKS3_@plt>
  405dc0:	e9 00 00 00 00       	jmp    405dc5 <main+0x95>
  405dc5:	48 8d 7d c8          	lea    -0x38(%rbp),%rdi
  405dc9:	e8 52 c4 ff ff       	call   402220 <_ZNSaIcED1Ev@plt>
  405dce:	48 8d 7d 90          	lea    -0x70(%rbp),%rdi
  405dd2:	48 89 bd 20 ff ff ff 	mov    %rdi,-0xe0(%rbp)
  405dd9:	e8 52 c5 ff ff       	call   402330 <_ZNSaIcEC1Ev@plt>
  405dde:	48 8b 95 20 ff ff ff 	mov    -0xe0(%rbp),%rdx
  405de5:	be 46 61 40 00       	mov    $0x406146,%esi
  405dea:	48 8d 7d 98          	lea    -0x68(%rbp),%rdi
  405dee:	e8 7d c4 ff ff       	call   402270 <_ZNSt7__cxx1112basic_stringIcSt11char_traitsIcESaIcEEC1EPKcRKS3_@plt>
  405df3:	e9 00 00 00 00       	jmp    405df8 <main+0xc8>
  405df8:	48 8d 7d 90          	lea    -0x70(%rbp),%rdi
  405dfc:	e8 1f c4 ff ff       	call   402220 <_ZNSaIcED1Ev@plt>
  405e01:	48 8d bd 38 ff ff ff 	lea    -0xc8(%rbp),%rdi
  405e08:	48 8d 75 98          	lea    -0x68(%rbp),%rsi
  405e0c:	48 8d 55 d0          	lea    -0x30(%rbp),%rdx
  405e10:	e8 6b ce ff ff       	call   402c80 <_ZN3BtcC1ERNSt7__cxx1112basic_stringIcSt11char_traitsIcESaIcEEES6_>
  405e15:	e9 00 00 00 00       	jmp    405e1a <main+0xea>
  405e1a:	c7 45 fc 00 00 00 00 	movl   $0x0,-0x4(%rbp)
  405e21:	48 8d bd 38 ff ff ff 	lea    -0xc8(%rbp),%rdi
  405e28:	e8 f3 db ff ff       	call   403a20 <_ZN3BtcD1Ev>
  405e2d:	e9 4f 00 00 00       	jmp    405e81 <main+0x151>
  405e32:	48 89 c1             	mov    %rax,%rcx
  405e35:	89 d0                	mov    %edx,%eax
  405e37:	48 89 4d c0          	mov    %rcx,-0x40(%rbp)
  405e3b:	89 45 bc             	mov    %eax,-0x44(%rbp)
  405e3e:	48 8d 7d c8          	lea    -0x38(%rbp),%rdi
  405e42:	e8 d9 c3 ff ff       	call   402220 <_ZNSaIcED1Ev@plt>
  405e47:	e9 86 00 00 00       	jmp    405ed2 <main+0x1a2>
  405e4c:	48 89 c1             	mov    %rax,%rcx
  405e4f:	89 d0                	mov    %edx,%eax
  405e51:	48 89 4d c0          	mov    %rcx,-0x40(%rbp)
  405e55:	89 45 bc             	mov    %eax,-0x44(%rbp)
  405e58:	48 8d 7d 90          	lea    -0x70(%rbp),%rdi
  405e5c:	e8 bf c3 ff ff       	call   402220 <_ZNSaIcED1Ev@plt>
  405e61:	e9 4d 00 00 00       	jmp    405eb3 <main+0x183>
  405e66:	48 89 d1             	mov    %rdx,%rcx
  405e69:	48 89 c6             	mov    %rax,%rsi
  405e6c:	48 89 75 c0          	mov    %rsi,-0x40(%rbp)
  405e70:	89 4d bc             	mov    %ecx,-0x44(%rbp)
  405e73:	48 8d 7d 98          	lea    -0x68(%rbp),%rdi
  405e77:	e8 a4 c2 ff ff       	call   402120 <_ZNSt7__cxx1112basic_stringIcSt11char_traitsIcESaIcEED1Ev@plt>
  405e7c:	e9 2d 00 00 00       	jmp    405eae <main+0x17e>
  405e81:	48 8d 7d 98          	lea    -0x68(%rbp),%rdi
  405e85:	e8 96 c2 ff ff       	call   402120 <_ZNSt7__cxx1112basic_stringIcSt11char_traitsIcESaIcEED1Ev@plt>
  405e8a:	e9 00 00 00 00       	jmp    405e8f <main+0x15f>
  405e8f:	48 8d 7d d0          	lea    -0x30(%rbp),%rdi
  405e93:	e8 88 c2 ff ff       	call   402120 <_ZNSt7__cxx1112basic_stringIcSt11char_traitsIcESaIcEED1Ev@plt>
  405e98:	e9 29 00 00 00       	jmp    405ec6 <main+0x196>
  405e9d:	48 89 c1             	mov    %rax,%rcx
  405ea0:	89 d0                	mov    %edx,%eax
  405ea2:	48 89 4d c0          	mov    %rcx,-0x40(%rbp)
  405ea6:	89 45 bc             	mov    %eax,-0x44(%rbp)
  405ea9:	e9 05 00 00 00       	jmp    405eb3 <main+0x183>
  405eae:	e9 00 00 00 00       	jmp    405eb3 <main+0x183>
  405eb3:	48 8d 7d d0          	lea    -0x30(%rbp),%rdi
  405eb7:	e8 64 c2 ff ff       	call   402120 <_ZNSt7__cxx1112basic_stringIcSt11char_traitsIcESaIcEED1Ev@plt>
  405ebc:	e9 00 00 00 00       	jmp    405ec1 <main+0x191>
  405ec1:	e9 0c 00 00 00       	jmp    405ed2 <main+0x1a2>
  405ec6:	8b 45 fc             	mov    -0x4(%rbp),%eax
  405ec9:	48 81 c4 e0 00 00 00 	add    $0xe0,%rsp
  405ed0:	5d                   	pop    %rbp
  405ed1:	c3                   	ret    
  405ed2:	48 8b 7d c0          	mov    -0x40(%rbp),%rdi
  405ed6:	e8 45 c4 ff ff       	call   402320 <_Unwind_Resume@plt>
  405edb:	48 89 c7             	mov    %rax,%rdi
  405ede:	e8 2d c8 ff ff       	call   402710 <__clang_call_terminate>

Disassembly of section .fini:

0000000000405ee4 <_fini>:
  405ee4:	f3 0f 1e fa          	endbr64 
  405ee8:	48 83 ec 08          	sub    $0x8,%rsp
  405eec:	48 83 c4 08          	add    $0x8,%rsp
  405ef0:	c3                   	ret    
